BL51 BANKED LINKER/LOCATER V6.22                                                        06/26/2021  00:39:09  PAGE 1


BL51 BANKED LINKER/LOCATER V6.22, INVOKED BY:
C:\KEIL\C51\BIN\BL51.EXE spin_userstart.obj, spin_exinterupt.obj, spin_gpio.obj, spin_interupt.obj, spin_pwrmgr.obj, spi
>> n_timer.obj, spin_uart.obj, spin_watchdog.obj, xprintf.obj, clock.obj, rtimer-arch.obj, etimer.obj, process.obj, time
>> r.obj, stimer.obj, ctimer.obj, rtimer.obj, list.obj, contiki-main.obj, spin_1602.obj, i2c.obj, spin_at24c02.obj, spin
>> _pwm.obj, spin_18b20.obj, spin_ds1302.obj TO stc89c52 RAMSIZE (256) CODE (0X0000-0XF3FF) XDATA (0X0000-0X03FF)




PROGRAM RECURSIONS REMOVED FROM CALL TREE
=========================================
+--> ?PR?_EXIT_PROCESS?PROCESS
<--+ ?PR?_CALL_PROCESS?PROCESS



MEMORY MODEL: LARGE WITH FLOATING POINT ARITHMETIC


INPUT MODULES INCLUDED:
  spin_userstart.obj (SPIN_USERSTART)
  spin_exinterupt.obj (SPIN_EXINTERUPT)
  spin_gpio.obj (SPIN_GPIO)
  spin_interupt.obj (SPIN_INTERUPT)
  spin_pwrmgr.obj (SPIN_PWRMGR)
  spin_timer.obj (SPIN_TIMER)
  spin_uart.obj (SPIN_UART)
  spin_watchdog.obj (SPIN_WATCHDOG)
  xprintf.obj (XPRINTF)
  clock.obj (CLOCK)
  rtimer-arch.obj (RTIMER_ARCH)
  etimer.obj (ETIMER)
  process.obj (PROCESS)
  timer.obj (TIMER)
  stimer.obj (STIMER)
  ctimer.obj (CTIMER)
  rtimer.obj (RTIMER)
  list.obj (LIST)
  contiki-main.obj (CONTIKI_MAIN)
  spin_1602.obj (SPIN_1602)
  i2c.obj (I2C)
  spin_at24c02.obj (SPIN_AT24C02)
  spin_pwm.obj (SPIN_PWM)
  spin_18b20.obj (SPIN_18B20)
  spin_ds1302.obj (SPIN_DS1302)
  C:\KEIL\C51\LIB\C51FPL.LIB (?C?FPADD)
  C:\KEIL\C51\LIB\C51FPL.LIB (?C?FPMUL)
  C:\KEIL\C51\LIB\C51FPL.LIB (?C?FPCMP)
  C:\KEIL\C51\LIB\C51FPL.LIB (?C?FPNEG)
  C:\KEIL\C51\LIB\C51FPL.LIB (?C?FCAST)
  C:\KEIL\C51\LIB\C51FPL.LIB (?C?CASTF)
  C:\KEIL\C51\LIB\C51FPL.LIB (?C?FPGETOPN)
  C:\KEIL\C51\LIB\C51L.LIB (?C_STARTUP)
  C:\KEIL\C51\LIB\C51L.LIB (?C?SCDIV)
  C:\KEIL\C51\LIB\C51L.LIB (?C?CLDPTR)
  C:\KEIL\C51\LIB\C51L.LIB (?C?CLDOPTR)
  C:\KEIL\C51\LIB\C51L.LIB (?C?CSTPTR)
  C:\KEIL\C51\LIB\C51L.LIB (?C?CSTOPTR)
BL51 BANKED LINKER/LOCATER V6.22                                                      06/26/2021  00:39:09  PAGE 2


  C:\KEIL\C51\LIB\C51L.LIB (?C?IMUL)
  C:\KEIL\C51\LIB\C51L.LIB (?C?UIDIV)
  C:\KEIL\C51\LIB\C51L.LIB (?C?SIDIV)
  C:\KEIL\C51\LIB\C51L.LIB (?C?IILDX)
  C:\KEIL\C51\LIB\C51L.LIB (?C?ILDIX)
  C:\KEIL\C51\LIB\C51L.LIB (?C?ILDPTR)
  C:\KEIL\C51\LIB\C51L.LIB (?C?ILDOPTR)
  C:\KEIL\C51\LIB\C51L.LIB (?C?IILDOPTR)
  C:\KEIL\C51\LIB\C51L.LIB (?C?ISTPTR)
  C:\KEIL\C51\LIB\C51L.LIB (?C?ISTOPTR)
  C:\KEIL\C51\LIB\C51L.LIB (?C?LMUL)
  C:\KEIL\C51\LIB\C51L.LIB (?C?LNEG)
  C:\KEIL\C51\LIB\C51L.LIB (?C?ULCMP)
  C:\KEIL\C51\LIB\C51L.LIB (?C?LLDPTR)
  C:\KEIL\C51\LIB\C51L.LIB (?C?LLDOPTR)
  C:\KEIL\C51\LIB\C51L.LIB (?C?LSTPTR)
  C:\KEIL\C51\LIB\C51L.LIB (?C?LSTOPTR)
  C:\KEIL\C51\LIB\C51L.LIB (?C?LLDPTR0)
  C:\KEIL\C51\LIB\C51L.LIB (?C?LLDOPTR0)
  C:\KEIL\C51\LIB\C51L.LIB (?C?LSTXDATA)
  C:\KEIL\C51\LIB\C51L.LIB (?C?LSTKXDATA)
  C:\KEIL\C51\LIB\C51L.LIB (?C?LSTKPTR)
  C:\KEIL\C51\LIB\C51L.LIB (?C?PLDPTR)
  C:\KEIL\C51\LIB\C51L.LIB (?C?PILDPTR)
  C:\KEIL\C51\LIB\C51L.LIB (?C?PSTPTR)
  C:\KEIL\C51\LIB\C51L.LIB (?C?PLDOPTR)
  C:\KEIL\C51\LIB\C51L.LIB (?C?PSTOPTR)
  C:\KEIL\C51\LIB\C51L.LIB (?C?ICALL)
  C:\KEIL\C51\LIB\C51L.LIB (?C?ADDXBP)
  C:\KEIL\C51\LIB\C51L.LIB (?C?COPYP2)
  C:\KEIL\C51\LIB\C51L.LIB (?C_INIT)
  C:\KEIL\C51\LIB\C51L.LIB (?C?LLDIDATA)
  C:\KEIL\C51\LIB\C51L.LIB (?C?LLDXDATA)
  C:\KEIL\C51\LIB\C51L.LIB (?C?LLDPDATA)
  C:\KEIL\C51\LIB\C51L.LIB (?C?LLDCODE)
  C:\KEIL\C51\LIB\C51L.LIB (?C?LLDIDATA0)
  C:\KEIL\C51\LIB\C51L.LIB (?C?LLDXDATA0)
  C:\KEIL\C51\LIB\C51L.LIB (?C?LLDPDATA0)
  C:\KEIL\C51\LIB\C51L.LIB (?C?LLDCODE0)
  C:\KEIL\C51\LIB\C51L.LIB (?C?LSTIDATA)
  C:\KEIL\C51\LIB\C51L.LIB (?C?LSTPDATA)
  C:\KEIL\C51\LIB\C51L.LIB (?C?LSTKIDATA)
  C:\KEIL\C51\LIB\C51L.LIB (?C?LSTKPDATA)
  C:\KEIL\C51\LIB\C51L.LIB (?C?PLDIDATA)
  C:\KEIL\C51\LIB\C51L.LIB (?C?PILDIDATA)
  C:\KEIL\C51\LIB\C51L.LIB (?C?PSTIDATA)
  C:\KEIL\C51\LIB\C51L.LIB (?C?PLDXDATA)
  C:\KEIL\C51\LIB\C51L.LIB (?C?PILDXDATA)
  C:\KEIL\C51\LIB\C51L.LIB (?C?PSTXDATA)
  C:\KEIL\C51\LIB\C51L.LIB (?C?PLDPDATA)
  C:\KEIL\C51\LIB\C51L.LIB (?C?PILDPDATA)
  C:\KEIL\C51\LIB\C51L.LIB (?C?PSTPDATA)
  C:\KEIL\C51\LIB\C51L.LIB (?C?PLDCODE)
  C:\KEIL\C51\LIB\C51L.LIB (?C_XBP)


LINK MAP OF MODULE:  stc89c52 (SPIN_USERSTART)
BL51 BANKED LINKER/LOCATER V6.22                                                      06/26/2021  00:39:09  PAGE 3




            TYPE    BASE      LENGTH    RELOCATION   SEGMENT NAME
            -----------------------------------------------------

            * * * * * * *   D A T A   M E M O R Y   * * * * * * *
            REG     0000H     0008H     ABSOLUTE     "REG BANK 0"
            DATA    0008H     0002H     UNIT         ?C?LIB_DATA
            IDATA   000AH     0010H     UNIT         ?ID?SPIN_UART
            IDATA   001AH     0003H     UNIT         _IDATA_GROUP_
                    001DH     0003H                  *** GAP ***
            BIT     0020H.0   0001H.0   UNIT         ?BI?SPIN_INTERUPT
            IDATA   0021H     0001H     UNIT         ?STACK

            * * * * * * *  X D A T A   M E M O R Y  * * * * * * *
            XDATA   0000H     00EDH     UNIT         ?XD?PROCESS
            XDATA   00EDH     004AH     UNIT         ?XD?CONTIKI_MAIN
            XDATA   0137H     003DH     UNIT         ?XD?SPIN_DS1302
            XDATA   0174H     002CH     UNIT         _XDATA_GROUP_
            XDATA   01A0H     002AH     UNIT         ?XD?SPIN_AT24C02
            XDATA   01CAH     001BH     UNIT         ?XD?SPIN_PWM
            XDATA   01E5H     0018H     UNIT         ?XD?SPIN_18B20
            XDATA   01FDH     0013H     UNIT         ?XD?_CTIMER_SET_WITH_PROCESS?CTIMER
            XDATA   0210H     0011H     UNIT         ?XD?ETIMER
            XDATA   0221H     0011H     UNIT         ?XD?CTIMER
            XDATA   0232H     0010H     UNIT         ?XD?SPIN_INTERUPT
            XDATA   0242H     000DH     UNIT         ?XD?_XATOI?XPRINTF
            XDATA   024FH     000DH     UNIT         ?XD?_CTIMER_SET?CTIMER
            XDATA   025CH     000DH     UNIT         ?XD?_RTIMER_SET?RTIMER
            XDATA   0269H     000CH     UNIT         ?XD?CLOCK
            XDATA   0275H     000CH     UNIT         ?XD?_EXIT_PROCESS?PROCESS
            XDATA   0281H     000AH     UNIT         ?XD?SPIN_1602
            XDATA   028BH     0009H     UNIT         ?XD?_XGETS?XPRINTF
            XDATA   0294H     0009H     UNIT         ?XD?_LIST_ADD?LIST
            XDATA   029DH     0009H     UNIT         ?XD?_LIST_CHOP?LIST
            XDATA   02A6H     0009H     UNIT         ?XD?_LIST_INSERT?LIST
            XDATA   02AFH     0008H     UNIT         ?XD?_CLOCK_WAIT?CLOCK
            XDATA   02B7H     0007H     UNIT         ?XD?XPRINTF
            XDATA   02BEH     0007H     UNIT         ?XD?_ETIMER_RESET_WITH_NEW_INTERVAL?ETIMER
            XDATA   02C5H     0006H     UNIT         ?XD?_ETIMER_STOP?ETIMER
            XDATA   02CBH     0006H     UNIT         ?XD?_CTIMER_RESET?CTIMER
            XDATA   02D1H     0006H     UNIT         ?XD?_CTIMER_RESTART?CTIMER
            XDATA   02D7H     0006H     UNIT         ?XD?_CTIMER_EXPIRED?CTIMER
            XDATA   02DDH     0006H     UNIT         ?XD?_LIST_COPY?LIST
            XDATA   02E3H     0006H     UNIT         ?XD?_LIST_TAIL?LIST
            XDATA   02E9H     0006H     UNIT         ?XD?_LIST_PUSH?LIST
            XDATA   02EFH     0006H     UNIT         ?XD?_LIST_POP?LIST
            XDATA   02F5H     0003H     UNIT         ?XD?_XPUTS?XPRINTF
            XDATA   02F8H     0003H     UNIT         ?XD?_ETIMER_RESET?ETIMER
            XDATA   02FBH     0003H     UNIT         ?XD?_TIMER_RESET?TIMER
            XDATA   02FEH     0003H     UNIT         ?XD?_TIMER_REMAINING?TIMER
            XDATA   0301H     0003H     UNIT         ?XD?_STIMER_SET?STIMER
            XDATA   0304H     0003H     UNIT         ?XD?_STIMER_RESET?STIMER
            XDATA   0307H     0003H     UNIT         ?XD?_STIMER_RESTART?STIMER
            XDATA   030AH     0003H     UNIT         ?XD?_STIMER_EXPIRED?STIMER
            XDATA   030DH     0003H     UNIT         ?XD?_STIMER_REMAINING?STIMER
            XDATA   0310H     0003H     UNIT         ?XD?_STIMER_ELAPSED?STIMER
BL51 BANKED LINKER/LOCATER V6.22                                                      06/26/2021  00:39:09  PAGE 4


            XDATA   0313H     0003H     UNIT         ?XD?_CTIMER_STOP?CTIMER
            XDATA   0316H     0003H     UNIT         ?XD?RTIMER
            XDATA   0319H     0003H     UNIT         ?XD?_LIST_ITEM_NEXT?LIST
            XDATA   031CH     0001H     UNIT         ?XD?_XPUTC?XPRINTF
            XDATA   031DH     0001H     UNIT         ?XD?I2C

            * * * * * * *   C O D E   M E M O R Y   * * * * * * *
            CODE    0000H     0003H     ABSOLUTE     
            CODE    0003H     0008H     UNIT         ?PR?_PRIMARY_VALUE?SPIN_TIMER
            CODE    000BH     0003H     ABSOLUTE     
            CODE    000EH     0005H     UNIT         ?PR?SPIN_EXINT0_STOP?SPIN_EXINTERUPT
            CODE    0013H     0003H     ABSOLUTE     
            CODE    0016H     0005H     UNIT         ?PR?SPIN_EXINT1_STOP?SPIN_EXINTERUPT
            CODE    001BH     0003H     ABSOLUTE     
            CODE    001EH     0005H     UNIT         ?PR?RTIMER_ARCH_INIT?RTIMER_ARCH
            CODE    0023H     0003H     ABSOLUTE     
            CODE    0026H     0005H     UNIT         ?CO?SPIN_18B20
            CODE    002BH     0003H     ABSOLUTE     
            CODE    002EH     0004H     UNIT         ?PR?SPIN_GET_CY?SPIN_USERSTART
            CODE    0032H     0001H     UNIT         ?PR?DELAY2US?SPIN_TIMER
            CODE    0033H     0003H     ABSOLUTE     
            CODE    0036H     0004H     UNIT         ?PR?IDLE_MODE?SPIN_PWRMGR
                    003AH     0001H                  *** GAP ***
            CODE    003BH     0003H     ABSOLUTE     
            CODE    003EH     0AA2H     UNIT         ?C?LIB_CODE
            CODE    0AE0H     0205H     UNIT         ?PR?_PROCESS_THREAD_ETIMER_PROCESS?ETIMER
            CODE    0CE5H     01E8H     UNIT         ?PR?_EXIT_PROCESS?PROCESS
            CODE    0ECDH     0164H     UNIT         ?PR?_PROCESS_THREAD_CTIMER_PROCESS?CTIMER
            CODE    1031H     015EH     UNIT         ?PR?_XATOI?XPRINTF
            CODE    118FH     0135H     UNIT         ?PR?_PROCESS_THREAD_AT24C02?SPIN_AT24C02
            CODE    12C4H     0118H     UNIT         ?PR?_TIME_2_ASCII?SPIN_DS1302
            CODE    13DCH     00FFH     UNIT         ?PR?INTERSVR1?CLOCK
            CODE    14DBH     00FAH     UNIT         ?C_INITSEG
            CODE    15D5H     00ECH     UNIT         ?PR?_XGETS?XPRINTF
            CODE    16C1H     00D0H     UNIT         ?PR?_PROCESS_THREAD__18B20?SPIN_18B20
            CODE    1791H     00CBH     UNIT         ?PR?_ETIMER_STOP?ETIMER
            CODE    185CH     00C9H     UNIT         ?PR?_DS1302_RTC_READ_TIME?SPIN_DS1302
            CODE    1925H     00C8H     UNIT         ?PR?_PROCESS_START?PROCESS
            CODE    19EDH     00C2H     UNIT         ?PR?_CALL_PROCESS?PROCESS
            CODE    1AAFH     00BBH     UNIT         ?PR?_DS1302_RTC_SET_TIME?SPIN_DS1302
            CODE    1B6AH     00B7H     UNIT         ?PR?_LIST_REMOVE?LIST
            CODE    1C21H     00B5H     UNIT         ?PR?_ADD_TIMER?ETIMER
            CODE    1CD6H     00B1H     UNIT         ?PR?MAIN?CONTIKI_MAIN
            CODE    1D87H     00AEH     UNIT         ?PR?DO_EVENT?PROCESS
            CODE    1E35H     00A4H     UNIT         ?PR?_PROCESS_THREAD_PWM_LED?SPIN_PWM
            CODE    1ED9H     00A4H     UNIT         ?PR?_FLOAT_2_ASCII?SPIN_18B20
            CODE    1F7DH     00A0H     UNIT         ?PR?_PROCESS_THREAD_DS1302?SPIN_DS1302
            CODE    201DH     0096H     UNIT         ?PR?_CTIMER_SET_WITH_PROCESS?CTIMER
            CODE    20B3H     0095H     UNIT         ?PR?_PROCESS_THREAD_LED?CONTIKI_MAIN
            CODE    2148H     0093H     UNIT         ?PR?PROCESS
            CODE    21DBH     0093H     UNIT         ?PR?SPIN_DS1302
            CODE    226EH     008CH     UNIT         ?C_C51STARTUP
            CODE    22FAH     0089H     UNIT         ?PR?_LIST_CHOP?LIST
            CODE    2383H     0089H     UNIT         ?PR?_I2C_GETS?I2C
            CODE    240CH     0087H     UNIT         ?PR?UPDATE_TIME?ETIMER
            CODE    2493H     0085H     UNIT         ?PR?_SPIN_WATCHDOG_OVERTIME?SPIN_WATCHDOG
            CODE    2518H     0085H     UNIT         ?PR?ETIMER
BL51 BANKED LINKER/LOCATER V6.22                                                      06/26/2021  00:39:09  PAGE 5


            CODE    259DH     007BH     UNIT         ?PR?_I2C_PUTS?I2C
            CODE    2618H     0076H     UNIT         ?PR?_RTIMER_SET?RTIMER
            CODE    268EH     0072H     UNIT         ?PR?_PROCESS_THREAD_LCD?SPIN_1602
            CODE    2700H     006DH     UNIT         ?PR?_PROCESS_THREAD_DOG?CONTIKI_MAIN
            CODE    276DH     006AH     UNIT         ?PR?_PROCESS_THREAD_HOLDLIVE?CONTIKI_MAIN
            CODE    27D7H     0066H     UNIT         ?PR?_CTIMER_EXPIRED?CTIMER
            CODE    283DH     0065H     UNIT         ?PR?CTIMER
            CODE    28A2H     0063H     UNIT         ?PR?RTIMER_RUN_NEXT?RTIMER
            CODE    2905H     0063H     UNIT         ?PR?_LIST_ADD?LIST
            CODE    2968H     005BH     UNIT         ?PR?INTERSVR4?SPIN_UART
            CODE    29C3H     0059H     UNIT         ?PR?DS1302_RECVBITS?SPIN_DS1302
            CODE    2A1CH     0057H     UNIT         ?PR?_CTIMER_STOP?CTIMER
            CODE    2A73H     0053H     UNIT         ?PR?DO_POLL?PROCESS
            CODE    2AC6H     0050H     UNIT         ?PR?GET_TEMP?SPIN_18B20
            CODE    2B16H     004EH     UNIT         ?PR?_SPIN_TIMER_SET?SPIN_TIMER
            CODE    2B64H     004EH     UNIT         ?PR?RTIMER_ISR?RTIMER_ARCH
            CODE    2BB2H     004DH     UNIT         ?PR?_LIST_INSERT?LIST
            CODE    2BFFH     004BH     UNIT         ?PR?_TIMER_EXPIRED?TIMER
            CODE    2C4AH     0048H     UNIT         ?PR?_SPIN_SET_GPIO_BIT_VALUE?SPIN_GPIO
            CODE    2C92H     0047H     UNIT         ?PR?_PROCESS_POST?PROCESS
            CODE    2CD9H     0046H     UNIT         ?PR?_XPUTC?XPRINTF
            CODE    2D1FH     0045H     UNIT         ?PR?_STIMER_EXPIRED?STIMER
            CODE    2D64H     0043H     UNIT         ?PR?_SPIN_COUNTER_SET?SPIN_TIMER
            CODE    2DA7H     003FH     UNIT         ?PR?HARDWARE_INIT?CONTIKI_MAIN
            CODE    2DE6H     003FH     UNIT         ?PR?READ_BYTE?SPIN_18B20
            CODE    2E25H     003EH     UNIT         ?PR?_SPIN_GET_GPIO_BIT_VALUE?SPIN_GPIO
            CODE    2E63H     003EH     UNIT         ?PR?_LIST_PUSH?LIST
            CODE    2EA1H     003DH     UNIT         ?PR?CONTIKI_MAIN
            CODE    2EDEH     003CH     UNIT         ?PR?XPRINTF
            CODE    2F1AH     0038H     UNIT         ?PR?_TIMER_REMAINING?TIMER
            CODE    2F52H     0038H     UNIT         ?PR?_LIST_TAIL?LIST
            CODE    2F8AH     0036H     UNIT         ?PR?_TIMER_RESET?TIMER
            CODE    2FC0H     0036H     UNIT         ?PR?_STIMER_RESET?STIMER
            CODE    2FF6H     0035H     UNIT         ?PR?_LIST_POP?LIST
            CODE    302BH     0034H     UNIT         ?PR?_SPIN_INTERUPT_OPEN?SPIN_INTERUPT
            CODE    305FH     0034H     UNIT         ?PR?I2C
            CODE    3093H     0033H     UNIT         ?PR?_PROCESS_POLL?PROCESS
            CODE    30C6H     0033H     UNIT         ?PR?_CTIMER_SET?CTIMER
            CODE    30F9H     0033H     UNIT         ?PR?SPIN_AT24C02
            CODE    312CH     0032H     UNIT         ?PR?_CLOCK_WAIT?CLOCK
            CODE    315EH     0032H     UNIT         ?PR?_CTIMER_RESET?CTIMER
            CODE    3190H     0032H     UNIT         ?PR?_CTIMER_RESTART?CTIMER
            CODE    31C2H     0032H     UNIT         ?PR?LIST
            CODE    31F4H     0032H     UNIT         ?PR?SPIN_18B20
            CODE    3226H     0030H     UNIT         ?PR?_PROCESS_POST_SYNCH?PROCESS
            CODE    3256H     0030H     UNIT         ?PR?_STIMER_REMAINING?STIMER
            CODE    3286H     0030H     UNIT         ?PR?SPIN_1602
            CODE    32B6H     0030H     UNIT         ?PR?_WRITE_BYTE?SPIN_18B20
            CODE    32E6H     002FH     UNIT         ?PR?_PUT_LINE1?SPIN_1602
            CODE    3315H     002FH     UNIT         ?PR?_PUT_LINE2?SPIN_1602
            CODE    3344H     002CH     UNIT         ?PR?STIMER
            CODE    3370H     002CH     UNIT         ?PR?_BIN2BCD?SPIN_DS1302
            CODE    339CH     002BH     UNIT         ?PR?_I2C_WRITE?I2C
            CODE    33C7H     002AH     UNIT         ?PR?I2C_STOP?I2C
            CODE    33F1H     0029H     UNIT         ?PR?CLOCK
            CODE    341AH     0029H     UNIT         ?PR?_ETIMER_RESET_WITH_NEW_INTERVAL?ETIMER
            CODE    3443H     0027H     UNIT         ?PR?INTERSVR2?SPIN_INTERUPT
BL51 BANKED LINKER/LOCATER V6.22                                                      06/26/2021  00:39:09  PAGE 6


            CODE    346AH     0027H     UNIT         ?PR?INTERSVR5?SPIN_INTERUPT
            CODE    3491H     0027H     UNIT         ?PR?INTERSVR6?SPIN_INTERUPT
            CODE    34B8H     0027H     UNIT         ?PR?INTERSVR7?SPIN_INTERUPT
            CODE    34DFH     0027H     UNIT         ?PR?I2C_START?I2C
            CODE    3506H     0027H     UNIT         ?PR?_DS1302_SENDBITS?SPIN_DS1302
            CODE    352DH     0024H     UNIT         ?PR?_XPUTS?XPRINTF
            CODE    3551H     0024H     UNIT         ?PR?PROCESS_INIT?PROCESS
            CODE    3575H     0023H     UNIT         ?PR?_SPIN_TIMER_START?SPIN_TIMER
            CODE    3598H     0023H     UNIT         ?PR?_U_PUTC?SPIN_UART
            CODE    35BBH     0023H     UNIT         ?PR?TIMER
            CODE    35DEH     0023H     UNIT         ?PR?I2C_READ?I2C
            CODE    3601H     0022H     UNIT         ?PR?_ETIMER_ADJUST?ETIMER
            CODE    3623H     0022H     UNIT         ?PR?I2C_GETACK?I2C
            CODE    3645H     0022H     UNIT         ?PR?_AT24C02READ?SPIN_AT24C02
            CODE    3667H     0022H     UNIT         ?PR?INIT_18B20?SPIN_18B20
            CODE    3689H     0021H     UNIT         ?PR?_SPIN_GET_GPIO_VALUE?SPIN_GPIO
            CODE    36AAH     0020H     UNIT         ?PR?_SPIN_COUNTER_TIME?SPIN_TIMER
            CODE    36CAH     0020H     UNIT         ?PR?_I2C_PUTACK?I2C
            CODE    36EAH     001FH     UNIT         ?PR?SPIN_UART_INIT?SPIN_UART
            CODE    3709H     001EH     UNIT         ?PR?CTIMER_INIT?CTIMER
            CODE    3727H     001DH     UNIT         ?PR?_SPIN_INTERUPT_CLOSE?SPIN_INTERUPT
            CODE    3744H     001DH     UNIT         ?PR?U_GETC?SPIN_UART
            CODE    3761H     001DH     UNIT         ?PR?_LIST_COPY?LIST
            CODE    377EH     001DH     UNIT         ?PR?_LIST_ITEM_NEXT?LIST
            CODE    379BH     001CH     UNIT         ?PR?_SPIN_SET_GPIO_VALUE?SPIN_GPIO
            CODE    37B7H     001CH     UNIT         ?PR?_AT24C02WRITE?SPIN_AT24C02
            CODE    37D3H     001BH     UNIT         ?PR?PWM_START?SPIN_PWM
            CODE    37EEH     001AH     UNIT         ?PR?_DELAYUS?SPIN_TIMER
            CODE    3808H     0019H     UNIT         ?PR?_ETIMER_SET?ETIMER
            CODE    3821H     0019H     UNIT         ?PR?_ETIMER_RESET?ETIMER
            CODE    383AH     0019H     UNIT         ?PR?_ETIMER_RESTART?ETIMER
            CODE    3853H     0019H     UNIT         ?PR?_LIST_INIT?LIST
            CODE    386CH     0018H     UNIT         ?PR?_TIMER_SET?TIMER
            CODE    3884H     0018H     UNIT         ?PR?_STIMER_SET?STIMER
            CODE    389CH     0018H     UNIT         ?PR?SPIN_PWM
            CODE    38B4H     0017H     UNIT         ?PR?_PROCESS_EXIT?PROCESS
            CODE    38CBH     0017H     UNIT         ?PR?_BCD2BIN?SPIN_DS1302
            CODE    38E2H     0017H     UNIT         ?PR?_DS1302_WRITEBYTE?SPIN_DS1302
            CODE    38F9H     0016H     UNIT         ?PR?_STIMER_ELAPSED?STIMER
            CODE    390FH     0015H     UNIT         ?PR?XGETC?XPRINTF
            CODE    3924H     0015H     UNIT         ?PR?ETIMER_NEXT_EXPIRATION_TIME?ETIMER
            CODE    3939H     0015H     UNIT         ?PR?RTIMER
            CODE    394EH     0014H     UNIT         ?PR?_SPIN_SET_WORK_REGISTER_GROUP?SPIN_USERSTART
            CODE    3962H     0014H     UNIT         ?PR?_LIST_LENGTH?LIST
            CODE    3976H     0014H     UNIT         ?PR?INITLCD?SPIN_1602
            CODE    398AH     0013H     UNIT         ?PR?_ETIMER_EXPIRED?ETIMER
            CODE    399DH     0013H     UNIT         ?PR?_WCODE?SPIN_1602
            CODE    39B0H     0013H     UNIT         ?PR?_WDATA?SPIN_1602
            CODE    39C3H     0013H     UNIT         ?PR?I2C_INIT?I2C
            CODE    39D6H     0012H     UNIT         ?PR?_SPIN_EXINT0_START?SPIN_EXINTERUPT
            CODE    39E8H     0012H     UNIT         ?PR?_SPIN_EXINT1_START?SPIN_EXINTERUPT
            CODE    39FAH     0012H     UNIT         ?PR?_TIMER_RESTART?TIMER
            CODE    3A0CH     0012H     UNIT         ?PR?_STIMER_RESTART?STIMER
            CODE    3A1EH     0012H     UNIT         ?PR?_DS1302_TXBIT?SPIN_DS1302
            CODE    3A30H     0011H     UNIT         ?PR?SPIN_INTERUPT_INIT?SPIN_INTERUPT
            CODE    3A41H     0011H     UNIT         ?PR?SPIN_SYSTICK?SPIN_TIMER
            CODE    3A52H     0011H     UNIT         ?PR?ETIMER_PENDING?ETIMER
BL51 BANKED LINKER/LOCATER V6.22                                                      06/26/2021  00:39:09  PAGE 7


            CODE    3A63H     0011H     UNIT         ?PR?CHECKBUSY?SPIN_1602
            CODE    3A74H     0010H     UNIT         ?PR?_SPIN_SET_F0?SPIN_USERSTART
            CODE    3A84H     0010H     UNIT         ?PR?_SPIN_SET_RS1?SPIN_USERSTART
            CODE    3A94H     0010H     UNIT         ?PR?_SPIN_SET_RS0?SPIN_USERSTART
            CODE    3AA4H     0010H     UNIT         ?PR?_DELAYMS?SPIN_TIMER
            CODE    3AB4H     0010H     UNIT         ?PR?PROCESS_RUN?PROCESS
            CODE    3AC4H     0010H     UNIT         ?CO?SPIN_AT24C02
            CODE    3AD4H     0010H     UNIT         ?PR?_DS1302_READBYTE?SPIN_DS1302
            CODE    3AE4H     000FH     UNIT         ?PR?_SPIN_TIMER_STOP?SPIN_TIMER
            CODE    3AF3H     000FH     UNIT         ?PR?_UART_BOAUD?SPIN_TIMER
            CODE    3B02H     000FH     UNIT         ?PR?_CLOCK_DELAY_USEC?CLOCK
            CODE    3B11H     000EH     UNIT         ?PR?DELAY1S?SPIN_TIMER
            CODE    3B1FH     000EH     UNIT         ?PR?_PROCESS_IS_RUNNING?PROCESS
            CODE    3B2DH     000EH     UNIT         ?PR?DS1302_RXBIT?SPIN_DS1302
            CODE    3B3BH     000DH     UNIT         ?PR?_ETIMER_EXPIRATION_TIME?ETIMER
            CODE    3B48H     000CH     UNIT         ?PR?CLOCK_TIME?CLOCK
            CODE    3B54H     000BH     UNIT         ?PR?_SPIN_SYSTICK_SET?SPIN_TIMER
            CODE    3B5FH     000AH     UNIT         ?PR?_RTIMER_ARCH_SCHEDULE?RTIMER_ARCH
            CODE    3B69H     0009H     UNIT         ?PR?DELAY1MS?SPIN_TIMER
            CODE    3B72H     0009H     UNIT         ?PR?SPIN_UART
            CODE    3B7BH     0009H     UNIT         ?PR?CLOCK_SECONDS?CLOCK
            CODE    3B84H     0009H     UNIT         ?PR?ETIMER_REQUEST_POLL?ETIMER
            CODE    3B8DH     0008H     UNIT         ?PR?PROCESS_ALLOC_EVENT?PROCESS
            CODE    3B95H     0007H     UNIT         ?PR?DS1302_CLOCK?SPIN_DS1302
            CODE    3B9CH     0006H     UNIT         ?PR?SPIN_GET_F0?SPIN_USERSTART
            CODE    3BA2H     0006H     UNIT         ?PR?SPIN_GET_RS1?SPIN_USERSTART
            CODE    3BA8H     0006H     UNIT         ?PR?SPIN_GET_RS0?SPIN_USERSTART
            CODE    3BAEH     0006H     UNIT         ?PR?SPIN_GET_OV?SPIN_USERSTART
            CODE    3BB4H     0004H     UNIT         ?PR?POWER_DOWN?SPIN_PWRMGR
            CODE    3BB8H     0004H     UNIT         ?PR?SPIN_WATCHDOG_ENABLE?SPIN_WATCHDOG
            CODE    3BBCH     0004H     UNIT         ?PR?SPIN_WATCHDOG_DISABLE?SPIN_WATCHDOG
            CODE    3BC0H     0004H     UNIT         ?PR?SPIN_WATCHDOG_IDLEWORK?SPIN_WATCHDOG
            CODE    3BC4H     0004H     UNIT         ?PR?SPIN_WATCHDOG_CLEAR?SPIN_WATCHDOG
            CODE    3BC8H     0004H     UNIT         ?PR?_ETIMER_START_TIME?ETIMER
            CODE    3BCCH     0004H     UNIT         ?PR?PROCESS_NEVENTS?PROCESS
            CODE    3BD0H     0004H     UNIT         ?PR?_LIST_HEAD?LIST
            CODE    3BD4H     0004H     UNIT         ?PR?DS1302_HW_INIT?SPIN_DS1302
            CODE    3BD8H     0004H     UNIT         ?PR?DS1302_RESET?SPIN_DS1302
            CODE    3BDCH     0004H     UNIT         ?PR?DS1302_START?SPIN_DS1302
            CODE    3BE0H     0004H     UNIT         ?PR?DS1302_STOP?SPIN_DS1302
            CODE    3BE4H     0003H     UNIT         ?PR?_SPIN_SET_SP?SPIN_USERSTART
            CODE    3BE7H     0003H     UNIT         ?PR?SPIN_GET_SP?SPIN_USERSTART
            CODE    3BEAH     0003H     UNIT         ?PR?SPIN_INTERUPT_ENABLE?SPIN_INTERUPT
            CODE    3BEDH     0003H     UNIT         ?PR?SPIN_INTERUPT_DISABLE?SPIN_INTERUPT
            CODE    3BF0H     0003H     UNIT         ?PR?CLOCK_INIT?CLOCK
            CODE    3BF3H     0003H     UNIT         ?PR?RTIMER_INIT?RTIMER
            CODE    3BF6H     0002H     UNIT         ?PR?DELAY3US?SPIN_TIMER



OVERLAY MAP OF MODULE:   stc89c52 (SPIN_USERSTART)


SEGMENT                                            IDATA_GROUP         XDATA_GROUP
  +--> CALLED SEGMENT                            START    LENGTH     START    LENGTH
------------------------------------------------------------------------------------
?PR?INTERSVR4?SPIN_UART                          -----    -----      -----    -----
BL51 BANKED LINKER/LOCATER V6.22                                                      06/26/2021  00:39:09  PAGE 8


  +--> ?PR?SPIN_UART

*** NEW ROOT ***************************************************

?PR?INTERSVR1?CLOCK                              -----    -----      -----    -----
  +--> ?PR?PWM_START?SPIN_PWM
  +--> ?PR?CLOCK
  +--> ?PR?ETIMER_PENDING?ETIMER
  +--> ?PR?ETIMER_NEXT_EXPIRATION_TIME?ETIMER
  +--> ?PR?ETIMER_REQUEST_POLL?ETIMER

?PR?ETIMER_PENDING?ETIMER                        -----    -----      -----    -----
  +--> ?PR?ETIMER

?PR?ETIMER_NEXT_EXPIRATION_TIME?ETIMER           -----    -----      -----    -----
  +--> ?PR?ETIMER_PENDING?ETIMER
  +--> ?PR?ETIMER

?PR?ETIMER_REQUEST_POLL?ETIMER                   -----    -----      -----    -----
  +--> ?PR?_PROCESS_POLL?PROCESS

?PR?_PROCESS_POLL?PROCESS                        -----    -----      0195H    0003H
  +--> ?PR?PROCESS

*** NEW ROOT ***************************************************

?PR?RTIMER_ISR?RTIMER_ARCH                       -----    -----      -----    -----
  +--> ?PR?_SPIN_TIMER_STOP?SPIN_TIMER
  +--> ?PR?RTIMER_RUN_NEXT?RTIMER

?PR?_SPIN_TIMER_STOP?SPIN_TIMER                  -----    -----      -----    -----
  +--> ?PR?_SPIN_INTERUPT_CLOSE?SPIN_INTERUPT

?PR?RTIMER_RUN_NEXT?RTIMER                       -----    -----      0177H    0003H
  +--> ?PR?RTIMER
  +--> ?PR?_RTIMER_ARCH_SCHEDULE?RTIMER_ARCH

?PR?_RTIMER_ARCH_SCHEDULE?RTIMER_ARCH            -----    -----      -----    -----
  +--> ?PR?_SPIN_TIMER_START?SPIN_TIMER

?PR?_SPIN_TIMER_START?SPIN_TIMER                 -----    -----      017BH    0001H
  +--> ?PR?SPIN_INTERUPT_ENABLE?SPIN_INTERUPT
  +--> ?PR?_SPIN_INTERUPT_OPEN?SPIN_INTERUPT

*** NEW ROOT ***************************************************

?C_C51STARTUP                                    -----    -----      -----    -----
  +--> ?PR?MAIN?CONTIKI_MAIN
  +--> ?C_INITSEG

?PR?MAIN?CONTIKI_MAIN                            -----    -----      -----    -----
  +--> ?PR?HARDWARE_INIT?CONTIKI_MAIN
  +--> ?PR?CLOCK_INIT?CLOCK
  +--> ?PR?RTIMER_INIT?RTIMER
  +--> ?PR?CTIMER_INIT?CTIMER
  +--> ?PR?PROCESS_INIT?PROCESS
  +--> ?PR?PROCESS_ALLOC_EVENT?PROCESS
BL51 BANKED LINKER/LOCATER V6.22                                                      06/26/2021  00:39:09  PAGE 9


  +--> ?PR?_PROCESS_START?PROCESS
  +--> ?PR?PROCESS_RUN?PROCESS
  +--> ?PR?IDLE_MODE?SPIN_PWRMGR

?PR?HARDWARE_INIT?CONTIKI_MAIN                   -----    -----      -----    -----
  +--> ?PR?_SPIN_SET_WORK_REGISTER_GROUP?SPI...
  +--> ?PR?SPIN_INTERUPT_INIT?SPIN_INTERUPT
  +--> ?PR?SPIN_INTERUPT_ENABLE?SPIN_INTERUPT
  +--> ?PR?SPIN_UART_INIT?SPIN_UART
  +--> ?PR?SPIN_WATCHDOG_ENABLE?SPIN_WATCHDOG
  +--> ?PR?_SPIN_WATCHDOG_OVERTIME?SPIN_WATC...
  +--> ?PR?_SPIN_EXINT0_START?SPIN_EXINTERUPT
  +--> ?PR?_SPIN_EXINT1_START?SPIN_EXINTERUPT
  +--> ?PR?U_GETC?SPIN_UART
  +--> ?PR?_U_PUTC?SPIN_UART
  +--> ?PR?_DS1302_RTC_SET_TIME?SPIN_DS1302

?PR?_SPIN_SET_WORK_REGISTER_GROUP?SPI...         -----    -----      -----    -----
  +--> ?PR?_SPIN_SET_RS0?SPIN_USERSTART
  +--> ?PR?_SPIN_SET_RS1?SPIN_USERSTART

?PR?SPIN_UART_INIT?SPIN_UART                     -----    -----      -----    -----
  +--> ?PR?_UART_BOAUD?SPIN_TIMER
  +--> ?PR?_SPIN_INTERUPT_OPEN?SPIN_INTERUPT

?PR?_UART_BOAUD?SPIN_TIMER                       -----    -----      -----    -----
  +--> ?PR?_SPIN_TIMER_SET?SPIN_TIMER

?PR?_SPIN_WATCHDOG_OVERTIME?SPIN_WATC...         001AH    0003H      017BH    0002H

?PR?_SPIN_EXINT0_START?SPIN_EXINTERUPT           -----    -----      -----    -----
  +--> ?PR?SPIN_INTERUPT_INIT?SPIN_INTERUPT
  +--> ?PR?SPIN_INTERUPT_ENABLE?SPIN_INTERUPT
  +--> ?PR?_SPIN_INTERUPT_OPEN?SPIN_INTERUPT

?PR?_SPIN_EXINT1_START?SPIN_EXINTERUPT           -----    -----      -----    -----
  +--> ?PR?SPIN_INTERUPT_INIT?SPIN_INTERUPT
  +--> ?PR?SPIN_INTERUPT_ENABLE?SPIN_INTERUPT
  +--> ?PR?_SPIN_INTERUPT_OPEN?SPIN_INTERUPT

?PR?_DS1302_RTC_SET_TIME?SPIN_DS1302             -----    -----      017BH    0003H
  +--> ?PR?SPIN_DS1302
  +--> ?PR?_DS1302_READBYTE?SPIN_DS1302
  +--> ?PR?_BIN2BCD?SPIN_DS1302
  +--> ?PR?_DS1302_WRITEBYTE?SPIN_DS1302

?PR?SPIN_DS1302                                  -----    -----      -----    -----
  +--> ?PR?_DS1302_WRITEBYTE?SPIN_DS1302
  +--> ?PR?DS1302_RESET?SPIN_DS1302
  +--> ?PR?DS1302_START?SPIN_DS1302

?PR?_DS1302_WRITEBYTE?SPIN_DS1302                -----    -----      -----    -----
  +--> ?PR?_DS1302_SENDBITS?SPIN_DS1302
  +--> ?PR?DS1302_STOP?SPIN_DS1302

?PR?_DS1302_SENDBITS?SPIN_DS1302                 -----    -----      -----    -----
  +--> ?PR?_DS1302_TXBIT?SPIN_DS1302
BL51 BANKED LINKER/LOCATER V6.22                                                      06/26/2021  00:39:09  PAGE 10


  +--> ?PR?DS1302_CLOCK?SPIN_DS1302

?PR?_DS1302_READBYTE?SPIN_DS1302                 -----    -----      -----    -----
  +--> ?PR?SPIN_DS1302
  +--> ?PR?_DS1302_SENDBITS?SPIN_DS1302
  +--> ?PR?DS1302_RECVBITS?SPIN_DS1302
  +--> ?PR?DS1302_STOP?SPIN_DS1302

?PR?DS1302_RECVBITS?SPIN_DS1302                  -----    -----      0186H    0004H
  +--> ?PR?DS1302_RXBIT?SPIN_DS1302
  +--> ?PR?DS1302_CLOCK?SPIN_DS1302

?PR?_BIN2BCD?SPIN_DS1302                         -----    -----      017EH    0002H

?PR?CLOCK_INIT?CLOCK                             -----    -----      -----    -----
  +--> ?PR?SPIN_SYSTICK?SPIN_TIMER

?PR?SPIN_SYSTICK?SPIN_TIMER                      -----    -----      -----    -----
  +--> ?PR?_SPIN_SYSTICK_SET?SPIN_TIMER
  +--> ?PR?_SPIN_TIMER_START?SPIN_TIMER

?PR?_SPIN_SYSTICK_SET?SPIN_TIMER                 -----    -----      -----    -----
  +--> ?PR?_SPIN_TIMER_SET?SPIN_TIMER

?PR?RTIMER_INIT?RTIMER                           -----    -----      -----    -----
  +--> ?PR?RTIMER_ARCH_INIT?RTIMER_ARCH

?PR?RTIMER_ARCH_INIT?RTIMER_ARCH                 -----    -----      -----    -----
  +--> ?PR?_SPIN_TIMER_START?SPIN_TIMER

?PR?CTIMER_INIT?CTIMER                           -----    -----      -----    -----
  +--> ?PR?CTIMER
  +--> ?PR?_LIST_INIT?LIST
  +--> ?PR?_PROCESS_START?PROCESS

?PR?_LIST_INIT?LIST                              -----    -----      017BH    0003H
  +--> ?PR?LIST

?PR?_PROCESS_START?PROCESS                       -----    -----      017BH    0009H
  +--> ?PR?PROCESS
  +--> ?PR?_PROCESS_POST_SYNCH?PROCESS

?PR?_PROCESS_POST_SYNCH?PROCESS                  -----    -----      0184H    000AH
  +--> ?PR?PROCESS
  +--> ?PR?_CALL_PROCESS?PROCESS

?PR?_CALL_PROCESS?PROCESS                        -----    -----      018EH    0007H
  +--> ?PR?PROCESS

?PR?PROCESS_RUN?PROCESS                          -----    -----      -----    -----
  +--> ?PR?DO_POLL?PROCESS
  +--> ?PR?DO_EVENT?PROCESS
  +--> ?PR?PROCESS

?PR?DO_POLL?PROCESS                              -----    -----      0185H    0003H
  +--> ?PR?PROCESS
  +--> ?PR?_CALL_PROCESS?PROCESS
BL51 BANKED LINKER/LOCATER V6.22                                                      06/26/2021  00:39:09  PAGE 11



?PR?DO_EVENT?PROCESS                             -----    -----      017BH    000AH
  +--> ?PR?PROCESS
  +--> ?PR?DO_POLL?PROCESS
  +--> ?PR?_CALL_PROCESS?PROCESS

?C_INITSEG                                       -----    -----      -----    -----
  +--> ?PR?_PROCESS_THREAD_ETIMER_PROCESS?ET...
  +--> ?PR?_PROCESS_THREAD_CTIMER_PROCESS?CT...
  +--> ?PR?_PROCESS_THREAD_LED?CONTIKI_MAIN
  +--> ?PR?_PROCESS_THREAD_DOG?CONTIKI_MAIN
  +--> ?PR?_PROCESS_THREAD_HOLDLIVE?CONTIKI_...
  +--> ?PR?_PROCESS_THREAD_LCD?SPIN_1602
  +--> ?PR?_PROCESS_THREAD_AT24C02?SPIN_AT24C02
  +--> ?PR?_PROCESS_THREAD_PWM_LED?SPIN_PWM
  +--> ?PR?_PROCESS_THREAD__18B20?SPIN_18B20
  +--> ?PR?_PROCESS_THREAD_DS1302?SPIN_DS1302

?PR?_PROCESS_THREAD_ETIMER_PROCESS?ET...         -----    -----      017BH    0011H
  +--> ?PR?ETIMER
  +--> ?PR?_TIMER_EXPIRED?TIMER
  +--> ?PR?_PROCESS_POST?PROCESS
  +--> ?PR?UPDATE_TIME?ETIMER
  +--> ?PR?ETIMER_REQUEST_POLL?ETIMER

?PR?_TIMER_EXPIRED?TIMER                         -----    -----      018CH    0007H
  +--> ?PR?TIMER
  +--> ?PR?CLOCK_TIME?CLOCK

?PR?CLOCK_TIME?CLOCK                             -----    -----      -----    -----
  +--> ?PR?CLOCK

?PR?_PROCESS_POST?PROCESS                        -----    -----      018CH    0007H
  +--> ?PR?PROCESS

?PR?UPDATE_TIME?ETIMER                           -----    -----      0195H    000BH
  +--> ?PR?ETIMER
  +--> ?PR?CLOCK_TIME?CLOCK

?PR?_PROCESS_THREAD_CTIMER_PROCESS?CT...         -----    -----      017BH    000EH
  +--> ?PR?CTIMER
  +--> ?PR?_LIST_HEAD?LIST
  +--> ?PR?_ETIMER_SET?ETIMER
  +--> ?PR?_LIST_REMOVE?LIST

?PR?_ETIMER_SET?ETIMER                           -----    -----      018CH    0003H
  +--> ?PR?ETIMER
  +--> ?PR?_TIMER_SET?TIMER
  +--> ?PR?_ADD_TIMER?ETIMER

?PR?_TIMER_SET?TIMER                             -----    -----      018FH    0003H
  +--> ?PR?TIMER
  +--> ?PR?CLOCK_TIME?CLOCK

?PR?_ADD_TIMER?ETIMER                            -----    -----      018FH    0006H
  +--> ?PR?ETIMER
  +--> ?PR?ETIMER_REQUEST_POLL?ETIMER
BL51 BANKED LINKER/LOCATER V6.22                                                      06/26/2021  00:39:09  PAGE 12


  +--> ?PR?UPDATE_TIME?ETIMER

?PR?_LIST_REMOVE?LIST                            -----    -----      0189H    000CH
  +--> ?PR?LIST

?PR?_PROCESS_THREAD_LED?CONTIKI_MAIN             -----    -----      017BH    0008H
  +--> ?PR?CONTIKI_MAIN
  +--> ?PR?_ETIMER_SET?ETIMER
  +--> ?PR?_ETIMER_RESTART?ETIMER
  +--> ?PR?_SPIN_SET_GPIO_BIT_VALUE?SPIN_GPIO
  +--> ?PR?_ETIMER_EXPIRED?ETIMER

?PR?_ETIMER_RESTART?ETIMER                       -----    -----      018CH    0003H
  +--> ?PR?ETIMER
  +--> ?PR?_TIMER_RESTART?TIMER
  +--> ?PR?_ADD_TIMER?ETIMER

?PR?_TIMER_RESTART?TIMER                         -----    -----      018FH    0003H
  +--> ?PR?TIMER
  +--> ?PR?CLOCK_TIME?CLOCK

?PR?_SPIN_SET_GPIO_BIT_VALUE?SPIN_GPIO           -----    -----      -----    -----
  +--> ?PR?_SPIN_GET_GPIO_VALUE?SPIN_GPIO

?PR?_ETIMER_EXPIRED?ETIMER                       -----    -----      -----    -----
  +--> ?PR?ETIMER

?PR?_PROCESS_THREAD_DOG?CONTIKI_MAIN             -----    -----      017BH    0008H
  +--> ?PR?CONTIKI_MAIN
  +--> ?PR?_ETIMER_SET?ETIMER
  +--> ?PR?_ETIMER_EXPIRED?ETIMER
  +--> ?PR?SPIN_WATCHDOG_CLEAR?SPIN_WATCHDOG
  +--> ?PR?_ETIMER_RESTART?ETIMER

?PR?_PROCESS_THREAD_HOLDLIVE?CONTIKI_...         -----    -----      017BH    0008H
  +--> ?PR?CONTIKI_MAIN
  +--> ?PR?_ETIMER_SET?ETIMER
  +--> ?PR?_ETIMER_EXPIRED?ETIMER
  +--> ?PR?_ETIMER_RESTART?ETIMER

?PR?_PROCESS_THREAD_LCD?SPIN_1602                -----    -----      017BH    0008H
  +--> ?PR?SPIN_1602
  +--> ?PR?INITLCD?SPIN_1602
  +--> ?PR?_PUT_LINE1?SPIN_1602
  +--> ?PR?_PUT_LINE2?SPIN_1602

?PR?INITLCD?SPIN_1602                            -----    -----      -----    -----
  +--> ?PR?_WCODE?SPIN_1602

?PR?_WCODE?SPIN_1602                             -----    -----      -----    -----
  +--> ?PR?CHECKBUSY?SPIN_1602
  +--> ?PR?_DELAYMS?SPIN_TIMER

?PR?_DELAYMS?SPIN_TIMER                          -----    -----      -----    -----
  +--> ?PR?DELAY1MS?SPIN_TIMER

?PR?_PUT_LINE1?SPIN_1602                         -----    -----      0183H    0004H
BL51 BANKED LINKER/LOCATER V6.22                                                      06/26/2021  00:39:09  PAGE 13


  +--> ?PR?SPIN_1602
  +--> ?PR?_WCODE?SPIN_1602
  +--> ?PR?_WDATA?SPIN_1602

?PR?_WDATA?SPIN_1602                             -----    -----      -----    -----
  +--> ?PR?CHECKBUSY?SPIN_1602
  +--> ?PR?_DELAYMS?SPIN_TIMER

?PR?_PUT_LINE2?SPIN_1602                         -----    -----      0183H    0004H
  +--> ?PR?SPIN_1602
  +--> ?PR?_WCODE?SPIN_1602
  +--> ?PR?_WDATA?SPIN_1602

?PR?_PROCESS_THREAD_AT24C02?SPIN_AT24C02         -----    -----      017BH    0008H
  +--> ?PR?SPIN_AT24C02
  +--> ?PR?I2C_INIT?I2C
  +--> ?PR?_ETIMER_SET?ETIMER
  +--> ?PR?_ETIMER_EXPIRED?ETIMER
  +--> ?CO?SPIN_AT24C02
  +--> ?PR?_AT24C02WRITE?SPIN_AT24C02
  +--> ?PR?_ETIMER_RESTART?ETIMER
  +--> ?PR?_AT24C02READ?SPIN_AT24C02
  +--> ?PR?_PROCESS_POST?PROCESS

?PR?I2C_INIT?I2C                                 -----    -----      -----    -----
  +--> ?PR?I2C

?PR?I2C                                          -----    -----      -----    -----
  +--> ?PR?_I2C_WRITE?I2C
  +--> ?PR?I2C_GETACK?I2C

?PR?_AT24C02WRITE?SPIN_AT24C02                   -----    -----      0183H    0001H
  +--> ?PR?SPIN_AT24C02
  +--> ?PR?_I2C_PUTS?I2C

?PR?_I2C_PUTS?I2C                                -----    -----      0184H    000CH
  +--> ?PR?I2C_START?I2C
  +--> ?PR?I2C
  +--> ?PR?I2C_STOP?I2C

?PR?I2C_START?I2C                                -----    -----      -----    -----
  +--> ?PR?I2C

?PR?I2C_STOP?I2C                                 -----    -----      -----    -----
  +--> ?PR?I2C

?PR?_AT24C02READ?SPIN_AT24C02                    -----    -----      0183H    0001H
  +--> ?PR?SPIN_AT24C02
  +--> ?PR?_I2C_GETS?I2C

?PR?_I2C_GETS?I2C                                -----    -----      0184H    000CH
  +--> ?PR?I2C_START?I2C
  +--> ?PR?I2C
  +--> ?PR?I2C_STOP?I2C
  +--> ?PR?I2C_READ?I2C
  +--> ?PR?_I2C_PUTACK?I2C

BL51 BANKED LINKER/LOCATER V6.22                                                      06/26/2021  00:39:09  PAGE 14


?PR?I2C_READ?I2C                                 -----    -----      -----    -----
  +--> ?PR?I2C

?PR?_I2C_PUTACK?I2C                              -----    -----      -----    -----
  +--> ?PR?I2C

?PR?_PROCESS_THREAD_PWM_LED?SPIN_PWM             -----    -----      017BH    0008H
  +--> ?PR?SPIN_PWM
  +--> ?PR?_ETIMER_SET?ETIMER
  +--> ?PR?_ETIMER_EXPIRED?ETIMER
  +--> ?PR?_ETIMER_RESTART?ETIMER

?PR?_PROCESS_THREAD__18B20?SPIN_18B20            -----    -----      017BH    0011H
  +--> ?CO?SPIN_18B20
  +--> ?PR?SPIN_18B20
  +--> ?PR?INIT_18B20?SPIN_18B20
  +--> ?PR?_ETIMER_SET?ETIMER
  +--> ?PR?_ETIMER_EXPIRED?ETIMER
  +--> ?PR?GET_TEMP?SPIN_18B20
  +--> ?PR?_FLOAT_2_ASCII?SPIN_18B20
  +--> ?PR?_PROCESS_POST?PROCESS
  +--> ?PR?_ETIMER_RESTART?ETIMER

?PR?INIT_18B20?SPIN_18B20                        -----    -----      018DH    0001H
  +--> ?PR?_DELAYUS?SPIN_TIMER

?PR?GET_TEMP?SPIN_18B20                          -----    -----      018CH    0001H
  +--> ?PR?INIT_18B20?SPIN_18B20
  +--> ?PR?_WRITE_BYTE?SPIN_18B20
  +--> ?PR?READ_BYTE?SPIN_18B20

?PR?_WRITE_BYTE?SPIN_18B20                       -----    -----      018DH    0002H
  +--> ?PR?_DELAYUS?SPIN_TIMER

?PR?READ_BYTE?SPIN_18B20                         -----    -----      018DH    0002H
  +--> ?PR?_DELAYUS?SPIN_TIMER

?PR?_FLOAT_2_ASCII?SPIN_18B20                    -----    -----      018CH    0007H
  +--> ?PR?SPIN_18B20

?PR?_PROCESS_THREAD_DS1302?SPIN_DS1302           -----    -----      017BH    0008H
  +--> ?PR?SPIN_DS1302
  +--> ?PR?_ETIMER_SET?ETIMER
  +--> ?PR?_ETIMER_EXPIRED?ETIMER
  +--> ?PR?_DS1302_RTC_READ_TIME?SPIN_DS1302
  +--> ?PR?_TIME_2_ASCII?SPIN_DS1302
  +--> ?PR?_PUT_LINE1?SPIN_1602
  +--> ?PR?_ETIMER_RESTART?ETIMER

?PR?_DS1302_RTC_READ_TIME?SPIN_DS1302            -----    -----      0183H    0003H
  +--> ?PR?SPIN_DS1302
  +--> ?PR?_DS1302_READBYTE?SPIN_DS1302
  +--> ?PR?_BCD2BIN?SPIN_DS1302

?PR?_TIME_2_ASCII?SPIN_DS1302                    -----    -----      0183H    0006H
  +--> ?PR?SPIN_DS1302

BL51 BANKED LINKER/LOCATER V6.22                                                      06/26/2021  00:39:09  PAGE 15




SYMBOL TABLE OF MODULE:  stc89c52 (SPIN_USERSTART)

  VALUE           TYPE          NAME
  ----------------------------------

  -------         MODULE        SPIN_USERSTART
  C:0000H         SYMBOL        _ICE_DUMMY_
  D:0090H         PUBLIC        P1
  D:00C0H         PUBLIC        XICON
  D:00B0H         PUBLIC        P3
  D:00A8H         PUBLIC        IE
  C:3BA8H         PUBLIC        spin_get_RS0
  C:3BA2H         PUBLIC        spin_get_RS1
  D:00B8H         PUBLIC        IP
  B:00D0H.7       PUBLIC        CY
  C:3A94H         PUBLIC        _spin_set_RS0
  C:3A84H         PUBLIC        _spin_set_RS1
  C:3BE7H         PUBLIC        spin_get_sp
  D:0081H         PUBLIC        SP
  B:00D0H.2       PUBLIC        OV
  C:3BE4H         PUBLIC        _spin_set_sp
  D:0098H         PUBLIC        SCON
  C:3B9CH         PUBLIC        spin_get_F0
  D:0088H         PUBLIC        TCON
  C:3A74H         PUBLIC        _spin_set_F0
  B:00D0H.3       PUBLIC        RS0
  B:00D0H.4       PUBLIC        RS1
  C:002EH         PUBLIC        spin_get_CY
  C:3BAEH         PUBLIC        spin_get_OV
  D:00C8H         PUBLIC        T2CON
  C:394EH         PUBLIC        _spin_set_work_register_group
  B:00D0H.5       PUBLIC        F0
  D:00D0H         PUBLIC        PSW
  -------         PROC          _SPIN_SET_F0
  D:0007H         SYMBOL        value
  C:3A74H         LINE#         4
  C:3A74H         LINE#         5
  C:3A83H         LINE#         6
  -------         ENDPROC       _SPIN_SET_F0
  -------         PROC          _SPIN_SET_RS1
  D:0007H         SYMBOL        value
  C:3A84H         LINE#         8
  C:3A84H         LINE#         9
  C:3A93H         LINE#         10
  -------         ENDPROC       _SPIN_SET_RS1
  -------         PROC          _SPIN_SET_RS0
  D:0007H         SYMBOL        value
  C:3A94H         LINE#         11
  C:3A94H         LINE#         12
  C:3AA3H         LINE#         13
  -------         ENDPROC       _SPIN_SET_RS0
  -------         PROC          _SPIN_SET_WORK_REGISTER_GROUP
  D:0006H         SYMBOL        index
  C:394EH         LINE#         15
  C:3950H         LINE#         16
BL51 BANKED LINKER/LOCATER V6.22                                                      06/26/2021  00:39:09  PAGE 16


  C:3957H         LINE#         17
  -------         ENDPROC       _SPIN_SET_WORK_REGISTER_GROUP
  -------         PROC          SPIN_GET_CY
  C:002EH         LINE#         20
  C:002EH         LINE#         21
  C:0031H         LINE#         22
  -------         ENDPROC       SPIN_GET_CY
  -------         PROC          SPIN_GET_F0
  C:3B9CH         LINE#         23
  C:3B9CH         LINE#         24
  C:3BA1H         LINE#         25
  -------         ENDPROC       SPIN_GET_F0
  -------         PROC          SPIN_GET_RS1
  C:3BA2H         LINE#         26
  C:3BA2H         LINE#         27
  C:3BA7H         LINE#         28
  -------         ENDPROC       SPIN_GET_RS1
  -------         PROC          SPIN_GET_RS0
  C:3BA8H         LINE#         29
  C:3BA8H         LINE#         30
  C:3BADH         LINE#         31
  -------         ENDPROC       SPIN_GET_RS0
  -------         PROC          SPIN_GET_OV
  C:3BAEH         LINE#         33
  C:3BAEH         LINE#         34
  C:3BB3H         LINE#         35
  -------         ENDPROC       SPIN_GET_OV
  -------         PROC          _SPIN_SET_SP
  D:0007H         SYMBOL        addr
  C:3BE4H         LINE#         36
  C:3BE4H         LINE#         37
  C:3BE6H         LINE#         38
  -------         ENDPROC       _SPIN_SET_SP
  -------         PROC          SPIN_GET_SP
  C:3BE7H         LINE#         39
  C:3BE7H         LINE#         40
  C:3BE9H         LINE#         41
  -------         ENDPROC       SPIN_GET_SP
  -------         ENDMOD        SPIN_USERSTART

  -------         MODULE        SPIN_EXINTERUPT
  C:0000H         SYMBOL        _ICE_DUMMY_
  D:0090H         PUBLIC        P1
  D:00C0H         PUBLIC        XICON
  D:00B0H         PUBLIC        P3
  C:39D6H         PUBLIC        _spin_exint0_start
  C:39E8H         PUBLIC        _spin_exint1_start
  D:00A8H         PUBLIC        IE
  D:00B8H         PUBLIC        IP
  C:000EH         PUBLIC        spin_exint0_stop
  C:0016H         PUBLIC        spin_exint1_stop
  D:0098H         PUBLIC        SCON
  D:0088H         PUBLIC        TCON
  B:0088H.0       PUBLIC        IT0
  B:0088H.2       PUBLIC        IT1
  D:00C8H         PUBLIC        T2CON
  D:00D0H         PUBLIC        PSW
BL51 BANKED LINKER/LOCATER V6.22                                                      06/26/2021  00:39:09  PAGE 17


  -------         PROC          _SPIN_EXINT0_START
  D:0007H         SYMBOL        type
  C:39D6H         LINE#         3
  C:39D6H         LINE#         4
  C:39DBH         LINE#         5
  C:39DEH         LINE#         6
  C:39E1H         LINE#         7
  -------         ENDPROC       _SPIN_EXINT0_START
  -------         PROC          _SPIN_EXINT1_START
  D:0007H         SYMBOL        type
  C:39E8H         LINE#         9
  C:39E8H         LINE#         10
  C:39EDH         LINE#         11
  C:39F0H         LINE#         12
  C:39F3H         LINE#         13
  -------         ENDPROC       _SPIN_EXINT1_START
  -------         PROC          SPIN_EXINT0_STOP
  C:000EH         LINE#         16
  C:000EH         LINE#         17
  -------         ENDPROC       SPIN_EXINT0_STOP
  -------         PROC          SPIN_EXINT1_STOP
  C:0016H         LINE#         20
  C:0016H         LINE#         21
  -------         ENDPROC       SPIN_EXINT1_STOP
  -------         ENDMOD        SPIN_EXINTERUPT

  -------         MODULE        SPIN_GPIO
  C:0000H         SYMBOL        _ICE_DUMMY_
  D:0080H         PUBLIC        P0
  D:0090H         PUBLIC        P1
  D:00A0H         PUBLIC        P2
  D:00C0H         PUBLIC        XICON
  D:00B0H         PUBLIC        P3
  D:00A8H         PUBLIC        IE
  C:2E25H         PUBLIC        _spin_get_gpio_bit_value
  D:00B8H         PUBLIC        IP
  C:2C4AH         PUBLIC        _spin_set_gpio_bit_value
  D:0098H         PUBLIC        SCON
  D:0088H         PUBLIC        TCON
  D:00C8H         PUBLIC        T2CON
  C:3689H         PUBLIC        _spin_get_gpio_value
  D:00D0H         PUBLIC        PSW
  C:379BH         PUBLIC        _spin_set_gpio_value
  -------         PROC          _SPIN_SET_GPIO_VALUE
  D:0007H         SYMBOL        gpio
  D:0005H         SYMBOL        value
  C:379BH         LINE#         7
  C:379BH         LINE#         8
  C:37A9H         LINE#         9
  C:37ACH         LINE#         10
  C:37AFH         LINE#         11
  C:37B2H         LINE#         12
  C:37B6H         LINE#         13
  C:37B6H         LINE#         14
  C:37B6H         LINE#         15
  -------         ENDPROC       _SPIN_SET_GPIO_VALUE
  -------         PROC          _SPIN_GET_GPIO_VALUE
BL51 BANKED LINKER/LOCATER V6.22                                                      06/26/2021  00:39:09  PAGE 18


  D:0007H         SYMBOL        gpio
  -------         DO            
  D:0006H         SYMBOL        temp
  -------         ENDDO         
  C:3689H         LINE#         16
  C:3689H         LINE#         17
  C:368BH         LINE#         18
  C:3699H         LINE#         19
  C:369DH         LINE#         20
  C:36A1H         LINE#         21
  C:36A5H         LINE#         22
  C:36A7H         LINE#         23
  C:36A7H         LINE#         24
  C:36A7H         LINE#         25
  C:36A9H         LINE#         26
  -------         ENDPROC       _SPIN_GET_GPIO_VALUE
  -------         PROC          _SPIN_SET_GPIO_BIT_VALUE
  D:0004H         SYMBOL        gpio
  D:0005H         SYMBOL        index
  D:0003H         SYMBOL        value
  -------         DO            
  D:0007H         SYMBOL        temp
  -------         ENDDO         
  C:2C4AH         LINE#         28
  C:2C4CH         LINE#         29
  C:2C4CH         LINE#         30
  C:2C4FH         LINE#         31
  C:2C63H         LINE#         33
  C:2C78H         LINE#         34
  C:2C86H         LINE#         35
  C:2C89H         LINE#         36
  C:2C8CH         LINE#         37
  C:2C8FH         LINE#         38
  C:2C91H         LINE#         39
  C:2C91H         LINE#         40
  C:2C91H         LINE#         41
  -------         ENDPROC       _SPIN_SET_GPIO_BIT_VALUE
  -------         PROC          _SPIN_GET_GPIO_BIT_VALUE
  D:0007H         SYMBOL        gpio
  D:0005H         SYMBOL        index
  -------         DO            
  D:0004H         SYMBOL        temp
  -------         ENDDO         
  C:2E25H         LINE#         43
  C:2E25H         LINE#         44
  C:2E27H         LINE#         45
  C:2E35H         LINE#         46
  C:2E39H         LINE#         47
  C:2E3DH         LINE#         48
  C:2E41H         LINE#         49
  C:2E43H         LINE#         50
  C:2E43H         LINE#         51
  C:2E43H         LINE#         52
  C:2E62H         LINE#         53
  -------         ENDPROC       _SPIN_GET_GPIO_BIT_VALUE
  -------         ENDMOD        SPIN_GPIO

BL51 BANKED LINKER/LOCATER V6.22                                                      06/26/2021  00:39:09  PAGE 19


  -------         MODULE        SPIN_INTERUPT
  C:0000H         SYMBOL        _ICE_DUMMY_
  D:0090H         PUBLIC        P1
  D:00C0H         PUBLIC        XICON
  D:00B0H         PUBLIC        P3
  B:00A8H.7       PUBLIC        EA
  B:0020H.0       PUBLIC        it0
  D:00A8H         PUBLIC        IE
  B:0020H.1       PUBLIC        it1
  B:0020H.2       PUBLIC        it2
  B:0020H.3       PUBLIC        it3
  B:0020H.4       PUBLIC        it4
  B:0020H.5       PUBLIC        it5
  B:0020H.6       PUBLIC        it6
  B:0020H.7       PUBLIC        it7
  C:3727H         PUBLIC        _spin_interupt_close
  D:00B8H         PUBLIC        IP
  C:302BH         PUBLIC        _spin_interupt_open
  D:0098H         PUBLIC        SCON
  C:3443H         PUBLIC        intersvr2
  C:3A30H         PUBLIC        spin_interupt_init
  D:0088H         PUBLIC        TCON
  C:346AH         PUBLIC        intersvr5
  C:3491H         PUBLIC        intersvr6
  C:34B8H         PUBLIC        intersvr7
  B:00C0H.2       PUBLIC        EX2
  B:00C0H.6       PUBLIC        EX3
  C:3BEDH         PUBLIC        spin_interupt_disable
  B:00C0H.3       PUBLIC        PX2
  B:00C0H.7       PUBLIC        PX3
  D:00C8H         PUBLIC        T2CON
  C:3BEAH         PUBLIC        spin_interupt_enable
  X:0232H         PUBLIC        inter_vector_function
  D:00D0H         PUBLIC        PSW
  -------         PROC          SPIN_INTERUPT_INIT
  C:3A30H         LINE#         8
  C:3A30H         LINE#         9
  C:3A40H         LINE#         10
  -------         ENDPROC       SPIN_INTERUPT_INIT
  -------         PROC          SPIN_INTERUPT_ENABLE
  C:3BEAH         LINE#         11
  C:3BEAH         LINE#         12
  C:3BECH         LINE#         13
  -------         ENDPROC       SPIN_INTERUPT_ENABLE
  -------         PROC          SPIN_INTERUPT_DISABLE
  C:3BEDH         LINE#         14
  C:3BEDH         LINE#         15
  C:3BEFH         LINE#         16
  -------         ENDPROC       SPIN_INTERUPT_DISABLE
  -------         PROC          _SPIN_INTERUPT_OPEN
  D:0007H         SYMBOL        num
  D:0005H         SYMBOL        prority
  C:302BH         LINE#         17
  C:302BH         LINE#         18
  C:302FH         LINE#         19
  C:3031H         LINE#         20
  C:3036H         LINE#         21
BL51 BANKED LINKER/LOCATER V6.22                                                      06/26/2021  00:39:09  PAGE 20


  C:3037H         LINE#         22
  C:303BH         LINE#         23
  C:303DH         LINE#         24
  C:3042H         LINE#         25
  C:3043H         LINE#         26
  C:3043H         LINE#         27
  C:3050H         LINE#         28
  C:305EH         LINE#         29
  C:305EH         LINE#         30
  -------         ENDPROC       _SPIN_INTERUPT_OPEN
  -------         PROC          _SPIN_INTERUPT_CLOSE
  D:0007H         SYMBOL        num
  C:3727H         LINE#         31
  C:3727H         LINE#         32
  C:372BH         LINE#         33
  C:372EH         LINE#         34
  C:3732H         LINE#         35
  C:3735H         LINE#         37
  C:3743H         LINE#         38
  -------         ENDPROC       _SPIN_INTERUPT_CLOSE
  -------         PROC          INTERSVR2
  C:3443H         LINE#         57
  C:3450H         LINE#         59
  C:345AH         LINE#         60
  C:345CH         LINE#         61
  -------         ENDPROC       INTERSVR2
  -------         PROC          INTERSVR5
  C:346AH         LINE#         68
  C:3477H         LINE#         70
  C:3481H         LINE#         71
  C:3483H         LINE#         72
  -------         ENDPROC       INTERSVR5
  -------         PROC          INTERSVR6
  C:3491H         LINE#         74
  C:349EH         LINE#         76
  C:34A8H         LINE#         77
  C:34AAH         LINE#         78
  -------         ENDPROC       INTERSVR6
  -------         PROC          INTERSVR7
  C:34B8H         LINE#         80
  C:34C5H         LINE#         82
  C:34CFH         LINE#         83
  C:34D1H         LINE#         84
  -------         ENDPROC       INTERSVR7
  -------         ENDMOD        SPIN_INTERUPT

  -------         MODULE        SPIN_PWRMGR
  C:0000H         SYMBOL        _ICE_DUMMY_
  D:0090H         PUBLIC        P1
  D:00C0H         PUBLIC        XICON
  D:00B0H         PUBLIC        P3
  D:00A8H         PUBLIC        IE
  D:00B8H         PUBLIC        IP
  C:0036H         PUBLIC        idle_mode
  D:0087H         PUBLIC        PCON
  D:0098H         PUBLIC        SCON
  D:0088H         PUBLIC        TCON
BL51 BANKED LINKER/LOCATER V6.22                                                      06/26/2021  00:39:09  PAGE 21


  C:3BB4H         PUBLIC        power_down
  D:00C8H         PUBLIC        T2CON
  D:00D0H         PUBLIC        PSW
  -------         PROC          IDLE_MODE
  C:0036H         LINE#         3
  C:0036H         LINE#         4
  C:0039H         LINE#         5
  -------         ENDPROC       IDLE_MODE
  -------         PROC          POWER_DOWN
  C:3BB4H         LINE#         6
  C:3BB4H         LINE#         7
  C:3BB7H         LINE#         8
  -------         ENDPROC       POWER_DOWN
  -------         ENDMOD        SPIN_PWRMGR

  -------         MODULE        SPIN_TIMER
  C:0000H         SYMBOL        _ICE_DUMMY_
  D:0090H         PUBLIC        P1
  D:00C0H         PUBLIC        XICON
  D:00B0H         PUBLIC        P3
  C:0003H         PUBLIC        _primary_value
  C:3A41H         PUBLIC        spin_sysTick
  D:00A8H         PUBLIC        IE
  D:00B8H         PUBLIC        IP
  C:3B69H         PUBLIC        delay1ms
  C:3AF3H         PUBLIC        _uart_boaud
  C:0032H         PUBLIC        delay2us
  C:3BF6H         PUBLIC        delay3us
  C:36AAH         PUBLIC        _spin_counter_time
  D:0098H         PUBLIC        SCON
  D:0089H         PUBLIC        TMOD
  D:0088H         PUBLIC        TCON
  C:3B11H         PUBLIC        delay1s
  D:008CH         PUBLIC        TH0
  D:008DH         PUBLIC        TH1
  C:2D64H         SYMBOL        _spin_counter_set
  D:008AH         PUBLIC        TL0
  D:008BH         PUBLIC        TL1
  C:3575H         PUBLIC        _spin_timer_start
  B:0088H.4       PUBLIC        TR0
  B:0088H.6       PUBLIC        TR1
  C:3B54H         SYMBOL        _spin_systick_set
  D:00C8H         PUBLIC        T2CON
  C:3AE4H         PUBLIC        _spin_timer_stop
  C:2B16H         PUBLIC        _spin_timer_set
  C:3AA4H         PUBLIC        _delayms
  D:00D0H         PUBLIC        PSW
  C:37EEH         PUBLIC        _delayus
  -------         PROC          _SPIN_COUNTER_SET
  D:0007H         SYMBOL        dev
  D:0005H         SYMBOL        mode
  D:0002H         SYMBOL        time
  C:2D64H         LINE#         11
  C:2D64H         LINE#         12
  C:2D69H         LINE#         13
  C:2D6CH         LINE#         14
  C:2D6FH         LINE#         15
BL51 BANKED LINKER/LOCATER V6.22                                                      06/26/2021  00:39:09  PAGE 22


  C:2D72H         LINE#         16
  C:2D76H         LINE#         17
  C:2D7DH         LINE#         19
  C:2D7DH         LINE#         20
  C:2D80H         LINE#         21
  C:2D83H         LINE#         22
  C:2D84H         LINE#         23
  C:2D89H         LINE#         24
  C:2D8CH         LINE#         25
  C:2D8FH         LINE#         26
  C:2D95H         LINE#         27
  C:2D99H         LINE#         28
  C:2DA0H         LINE#         30
  C:2DA0H         LINE#         31
  C:2DA3H         LINE#         32
  C:2DA6H         LINE#         33
  C:2DA6H         LINE#         34
  -------         ENDPROC       _SPIN_COUNTER_SET
  -------         PROC          _SPIN_TIMER_START
  X:017BH         SYMBOL        dev
  C:3575H         LINE#         37
  C:357AH         LINE#         38
  C:357DH         LINE#         39
  C:3587H         LINE#         40
  C:3591H         LINE#         41
  C:3597H         LINE#         42
  -------         ENDPROC       _SPIN_TIMER_START
  -------         PROC          _SPIN_TIMER_STOP
  D:0007H         SYMBOL        dev
  C:3AE4H         LINE#         44
  C:3AE4H         LINE#         45
  C:3AEAH         LINE#         46
  C:3AF0H         LINE#         47
  -------         ENDPROC       _SPIN_TIMER_STOP
  -------         PROC          _PRIMARY_VALUE
  D:0006H         SYMBOL        overflow_time_us
  C:0003H         LINE#         50
  C:0003H         LINE#         51
  C:000AH         LINE#         52
  -------         ENDPROC       _PRIMARY_VALUE
  -------         PROC          _SPIN_TIMER_SET
  D:0007H         SYMBOL        dev
  D:0005H         SYMBOL        mode
  D:0002H         SYMBOL        time
  C:2B16H         LINE#         57
  C:2B16H         LINE#         58
  C:2B1BH         LINE#         59
  C:2B1EH         LINE#         60
  C:2B21H         LINE#         61
  C:2B2FH         LINE#         62
  C:2B2FH         LINE#         63
  C:2B36H         LINE#         64
  C:2B36H         LINE#         65
  C:2B3DH         LINE#         66
  C:2B3DH         LINE#         67
  C:2B3DH         LINE#         68
  C:2B3DH         LINE#         69
BL51 BANKED LINKER/LOCATER V6.22                                                      06/26/2021  00:39:09  PAGE 23


  C:2B42H         LINE#         70
  C:2B45H         LINE#         71
  C:2B4BH         LINE#         72
  C:2B56H         LINE#         73
  C:2B56H         LINE#         74
  C:2B5DH         LINE#         75
  C:2B63H         LINE#         76
  C:2B63H         LINE#         77
  C:2B63H         LINE#         78
  C:2B63H         LINE#         79
  C:2B63H         LINE#         80
  -------         ENDPROC       _SPIN_TIMER_SET
  -------         PROC          _SPIN_COUNTER_TIME
  D:0001H         SYMBOL        dev
  D:0004H         SYMBOL        time
  -------         DO            
  D:0004H         SYMBOL        primary_values
  -------         ENDDO         
  C:36AAH         LINE#         82
  C:36ACH         LINE#         85
  C:36B7H         LINE#         86
  C:36C2H         LINE#         88
  C:36C7H         LINE#         89
  C:36C9H         LINE#         90
  -------         ENDPROC       _SPIN_COUNTER_TIME
  -------         PROC          _SPIN_SYSTICK_SET
  D:0006H         SYMBOL        time
  C:3B54H         LINE#         91
  C:3B54H         LINE#         92
  -------         ENDPROC       _SPIN_SYSTICK_SET
  -------         PROC          _UART_BOAUD
  D:0006H         SYMBOL        overtime
  C:3AF3H         LINE#         94
  C:3AF3H         LINE#         95
  -------         ENDPROC       _UART_BOAUD
  -------         PROC          SPIN_SYSTICK
  C:3A41H         LINE#         98
  C:3A41H         LINE#         99
  C:3A48H         LINE#         101
  C:3A4DH         LINE#         102
  -------         ENDPROC       SPIN_SYSTICK
  -------         PROC          DELAY2US
  C:0032H         LINE#         105
  C:0032H         LINE#         106
  C:0032H         LINE#         107
  -------         ENDPROC       DELAY2US
  -------         PROC          DELAY3US
  C:3BF6H         LINE#         108
  C:3BF6H         LINE#         109
  C:3BF6H         LINE#         110
  C:3BF7H         LINE#         111
  -------         ENDPROC       DELAY3US
  -------         PROC          DELAY1MS
  -------         DO            
  D:0006H         SYMBOL        a
  D:0007H         SYMBOL        b
  -------         ENDDO         
BL51 BANKED LINKER/LOCATER V6.22                                                      06/26/2021  00:39:09  PAGE 24


  C:3B69H         LINE#         113
  C:3B69H         LINE#         114
  C:3B69H         LINE#         116
  C:3B6BH         LINE#         117
  C:3B71H         LINE#         118
  -------         ENDPROC       DELAY1MS
  -------         PROC          DELAY1S
  -------         DO            
  D:0005H         SYMBOL        a
  D:0006H         SYMBOL        b
  D:0007H         SYMBOL        c
  -------         ENDDO         
  C:3B11H         LINE#         120
  C:3B11H         LINE#         121
  C:3B11H         LINE#         123
  C:3B13H         LINE#         124
  C:3B15H         LINE#         125
  C:3B1DH         LINE#         126
  C:3B1EH         LINE#         127
  -------         ENDPROC       DELAY1S
  -------         PROC          _DELAYUS
  D:0007H         SYMBOL        us
  -------         DO            
  D:0006H         SYMBOL        i
  -------         ENDDO         
  C:37EEH         LINE#         129
  C:37EEH         LINE#         130
  C:37F0H         LINE#         131
  C:37F5H         LINE#         132
  C:37FAH         LINE#         133
  C:3803H         LINE#         134
  C:3807H         LINE#         136
  -------         ENDPROC       _DELAYUS
  -------         PROC          _DELAYMS
  D:0005H         SYMBOL        ms
  -------         DO            
  D:0004H         SYMBOL        i
  -------         ENDDO         
  C:3AA4H         LINE#         138
  C:3AA6H         LINE#         139
  C:3AA8H         LINE#         140
  C:3AADH         LINE#         141
  C:3AB3H         LINE#         143
  -------         ENDPROC       _DELAYMS
  -------         ENDMOD        SPIN_TIMER

  -------         MODULE        SPIN_UART
  C:0000H         SYMBOL        _ICE_DUMMY_
  D:0090H         PUBLIC        P1
  D:00C0H         PUBLIC        XICON
  D:00B0H         PUBLIC        P3
  D:00A8H         PUBLIC        IE
  C:3598H         PUBLIC        _u_putc
  D:00B8H         PUBLIC        IP
  B:0098H.0       PUBLIC        RI
  B:0098H.1       PUBLIC        TI
  I:000AH         PUBLIC        fifo
BL51 BANKED LINKER/LOCATER V6.22                                                      06/26/2021  00:39:09  PAGE 25


  D:0099H         PUBLIC        SBUF
  D:0087H         PUBLIC        PCON
  D:0098H         PUBLIC        SCON
  D:0088H         PUBLIC        TCON
  C:2968H         PUBLIC        intersvr4
  D:008EH         PUBLIC        AUXR
  D:00C8H         PUBLIC        T2CON
  C:36EAH         PUBLIC        spin_uart_init
  D:00D0H         PUBLIC        PSW
  C:3744H         PUBLIC        u_getc
  C:3B72H         SYMBOL        Com000E
  C:3B72H         SYMBOL        L?0015
  -------         PROC          COM000E
  -------         ENDPROC       COM000E
  -------         PROC          SPIN_UART_INIT
  C:36EAH         LINE#         10
  C:36EAH         LINE#         13
  C:36EDH         LINE#         14
  C:36F0H         LINE#         15
  C:36F3H         LINE#         16
  C:36F6H         LINE#         17
  C:36FDH         LINE#         18
  C:3704H         LINE#         19
  C:3708H         LINE#         20
  -------         ENDPROC       SPIN_UART_INIT
  -------         PROC          U_GETC
  -------         DO            
  D:0006H         SYMBOL        d
  D:0007H         SYMBOL        i
  -------         ENDDO         
  C:3744H         LINE#         29
  C:3744H         LINE#         34
  C:3749H         LINE#         36
  C:374DH         LINE#         37
  C:3752H         LINE#         38
  C:375CH         LINE#         39
  C:375EH         LINE#         40
  C:3760H         LINE#         41
  -------         ENDPROC       U_GETC
  -------         PROC          _U_PUTC
  D:0007H         SYMBOL        c
  -------         DO            
  D:0006H         SYMBOL        i
  -------         ENDDO         
  C:3598H         LINE#         43
  C:3598H         LINE#         46
  C:35A0H         LINE#         48
  C:35A4H         LINE#         49
  C:35A9H         LINE#         50
  C:35B5H         LINE#         51
  C:35B8H         LINE#         52
  C:35BAH         LINE#         53
  -------         ENDPROC       _U_PUTC
  -------         PROC          INTERSVR4
  -------         DO            
  D:0007H         SYMBOL        i
  D:0006H         SYMBOL        d
BL51 BANKED LINKER/LOCATER V6.22                                                      06/26/2021  00:39:09  PAGE 26


  -------         ENDDO         
  C:2968H         LINE#         55
  C:2977H         LINE#         58
  C:297AH         LINE#         59
  C:297CH         LINE#         60
  C:297EH         LINE#         61
  C:2982H         LINE#         62
  C:2987H         LINE#         63
  C:298AH         LINE#         64
  C:298EH         LINE#         65
  C:2993H         LINE#         66
  C:2998H         LINE#         67
  C:2998H         LINE#         68
  C:2998H         LINE#         69
  C:299BH         LINE#         70
  C:299FH         LINE#         71
  C:29A2H         LINE#         72
  C:29A4H         LINE#         73
  C:29A7H         LINE#         74
  C:29ADH         LINE#         75
  C:29B2H         LINE#         76
  C:29B4H         LINE#         77
  C:29B6H         LINE#         78
  C:29B6H         LINE#         79
  C:29B6H         LINE#         80
  -------         ENDPROC       INTERSVR4
  -------         ENDMOD        SPIN_UART

  -------         MODULE        SPIN_WATCHDOG
  C:0000H         SYMBOL        _ICE_DUMMY_
  D:0090H         PUBLIC        P1
  D:00C0H         PUBLIC        XICON
  D:00B0H         PUBLIC        P3
  D:00A8H         PUBLIC        IE
  D:00B8H         PUBLIC        IP
  C:3BBCH         PUBLIC        spin_watchdog_disable
  D:0098H         PUBLIC        SCON
  D:0088H         PUBLIC        TCON
  C:3BC0H         PUBLIC        spin_watchdog_idlework
  C:3BB8H         PUBLIC        spin_watchdog_enable
  C:2493H         PUBLIC        _spin_watchdog_overtime
  D:00E1H         PUBLIC        WDT_CONTR
  C:3BC4H         PUBLIC        spin_watchdog_clear
  D:00C8H         PUBLIC        T2CON
  D:00D0H         PUBLIC        PSW
  -------         PROC          SPIN_WATCHDOG_ENABLE
  C:3BB8H         LINE#         3
  C:3BB8H         LINE#         4
  C:3BBBH         LINE#         5
  -------         ENDPROC       SPIN_WATCHDOG_ENABLE
  -------         PROC          SPIN_WATCHDOG_DISABLE
  C:3BBCH         LINE#         6
  C:3BBCH         LINE#         7
  C:3BBFH         LINE#         8
  -------         ENDPROC       SPIN_WATCHDOG_DISABLE
  -------         PROC          SPIN_WATCHDOG_IDLEWORK
  C:3BC0H         LINE#         9
BL51 BANKED LINKER/LOCATER V6.22                                                      06/26/2021  00:39:09  PAGE 27


  C:3BC0H         LINE#         10
  C:3BC3H         LINE#         11
  -------         ENDPROC       SPIN_WATCHDOG_IDLEWORK
  -------         PROC          SPIN_WATCHDOG_CLEAR
  C:3BC4H         LINE#         13
  C:3BC4H         LINE#         14
  C:3BC7H         LINE#         15
  -------         ENDPROC       SPIN_WATCHDOG_CLEAR
  -------         PROC          _SPIN_WATCHDOG_OVERTIME
  X:017BH         SYMBOL        pre_scale
  X:017CH         SYMBOL        mhz
  -------         DO            
  I:001AH         SYMBOL        pre_scale_value
  I:001BH         SYMBOL        overtime
  -------         ENDDO         
  C:2493H         LINE#         18
  C:249BH         LINE#         19
  C:249FH         LINE#         20
  C:24A3H         LINE#         21
  C:24A6H         LINE#         22
  C:24C8H         LINE#         23
  C:24CEH         LINE#         24
  C:24D4H         LINE#         25
  C:24DAH         LINE#         26
  C:24E0H         LINE#         27
  C:24E6H         LINE#         28
  C:24ECH         LINE#         29
  C:24F2H         LINE#         30
  C:24F6H         LINE#         31
  C:24F6H         LINE#         32
  C:24F6H         LINE#         33
  C:24FBH         LINE#         34
  C:2517H         LINE#         35
  C:2517H         LINE#         36
  -------         ENDPROC       _SPIN_WATCHDOG_OVERTIME
  -------         ENDMOD        SPIN_WATCHDOG

  -------         MODULE        XPRINTF
  C:0000H         SYMBOL        _ICE_DUMMY_
  C:390FH         PUBLIC        xgetc
  C:1031H         PUBLIC        _xatoi
  C:15D5H         PUBLIC        _xgets
  X:02B7H         SYMBOL        outptr
  C:2CD9H         PUBLIC        _xputc
  C:352DH         PUBLIC        _xputs
  X:02BAH         PUBLIC        xfunc_in
  X:02BCH         PUBLIC        xfunc_out
  C:2EDEH         SYMBOL        Com0031
  C:2EDEH         SYMBOL        L?0050
  C:2EDFH         SYMBOL        L?0051
  C:2EE2H         SYMBOL        L?0052
  C:2EEBH         SYMBOL        L?0053
  C:2EEBH         SYMBOL        L?0054
  C:2EFAH         SYMBOL        L?0055
  C:2F09H         SYMBOL        L?0056
  C:2F09H         SYMBOL        L?0057
  C:2F12H         SYMBOL        L?0058
BL51 BANKED LINKER/LOCATER V6.22                                                      06/26/2021  00:39:09  PAGE 28


  C:2F13H         SYMBOL        L?0059
  -------         PROC          COM0031
  -------         ENDPROC       COM0031
  -------         PROC          _XPUTC
  X:031CH         SYMBOL        c
  C:2CD9H         LINE#         26
  C:2CDEH         LINE#         27
  C:2CDEH         LINE#         28
  C:2CE6H         LINE#         30
  C:2CF1H         LINE#         31
  C:2D03H         LINE#         33
  C:2D03H         LINE#         35
  C:2D1EH         LINE#         36
  -------         ENDPROC       _XPUTC
  -------         PROC          _XPUTS
  X:02F5H         SYMBOL        str
  C:352DH         LINE#         44
  C:3533H         LINE#         47
  C:3533H         LINE#         48
  C:353EH         LINE#         49
  C:3550H         LINE#         50
  -------         ENDPROC       _XPUTS
  -------         PROC          XGETC
  C:390FH         LINE#         64
  C:390FH         LINE#         65
  C:391CH         LINE#         66
  C:3923H         LINE#         67
  -------         ENDPROC       XGETC
  -------         PROC          _XGETS
  X:028BH         SYMBOL        buff
  X:028EH         SYMBOL        len
  -------         DO            
  X:0290H         SYMBOL        c
  X:0292H         SYMBOL        i
  -------         ENDDO         
  C:15D5H         LINE#         72
  C:15E1H         LINE#         76
  C:15E1H         LINE#         80
  C:15EEH         LINE#         82
  C:15F5H         LINE#         83
  C:15F5H         LINE#         84
  C:160CH         LINE#         85
  C:1610H         LINE#         86
  C:1620H         LINE#         87
  C:1636H         LINE#         88
  C:1644H         LINE#         90
  C:164AH         LINE#         92
  C:164CH         LINE#         93
  C:164CH         LINE#         94
  C:1682H         LINE#         95
  C:1697H         LINE#         97
  C:169AH         LINE#         99
  C:169AH         LINE#         100
  C:169DH         LINE#         101
  C:16B2H         LINE#         104
  C:16B7H         LINE#         106
  C:16BCH         LINE#         108
BL51 BANKED LINKER/LOCATER V6.22                                                      06/26/2021  00:39:09  PAGE 29


  C:16C0H         LINE#         109
  -------         ENDPROC       _XGETS
  -------         PROC          _XATOI
  X:0242H         SYMBOL        str
  X:0245H         SYMBOL        res
  -------         DO            
  X:0248H         SYMBOL        val
  X:024CH         SYMBOL        c
  X:024DH         SYMBOL        r
  X:024EH         SYMBOL        s
  -------         ENDDO         
  C:1031H         LINE#         124
  C:1037H         LINE#         128
  C:1037H         LINE#         130
  C:103CH         LINE#         133
  C:1049H         LINE#         135
  C:1069H         LINE#         137
  C:1070H         LINE#         138
  C:1075H         LINE#         139
  C:107BH         LINE#         140
  C:107BH         LINE#         142
  C:1084H         LINE#         143
  C:108AH         LINE#         144
  C:1094H         LINE#         145
  C:1094H         LINE#         146
  C:1099H         LINE#         147
  C:109BH         LINE#         148
  C:109BH         LINE#         149
  C:10A6H         LINE#         150
  C:10A8H         LINE#         151
  C:10A8H         LINE#         152
  C:10B1H         LINE#         153
  C:10C3H         LINE#         154
  C:10C9H         LINE#         155
  C:10C9H         LINE#         156
  C:10CBH         LINE#         157
  C:10DCH         LINE#         158
  C:10E2H         LINE#         159
  C:10E2H         LINE#         161
  C:10ECH         LINE#         162
  C:10F6H         LINE#         163
  C:10FFH         LINE#         164
  C:1106H         LINE#         165
  C:110CH         LINE#         166
  C:1110H         LINE#         167
  C:1118H         LINE#         168
  C:1118H         LINE#         169
  C:1129H         LINE#         170
  C:1163H         LINE#         171
  C:1169H         LINE#         172
  C:116CH         LINE#         173
  C:117EH         LINE#         175
  C:118AH         LINE#         176
  C:118EH         LINE#         177
  -------         ENDPROC       _XATOI
  -------         ENDMOD        XPRINTF

BL51 BANKED LINKER/LOCATER V6.22                                                      06/26/2021  00:39:09  PAGE 30


  -------         MODULE        CLOCK
  C:0000H         SYMBOL        _ICE_DUMMY_
  D:0090H         PUBLIC        P1
  D:00C0H         PUBLIC        XICON
  D:00B0H         PUBLIC        P3
  X:0269H         SYMBOL        counter
  B:00A8H.7       PUBLIC        EA
  D:00A8H         PUBLIC        IE
  C:3B02H         PUBLIC        _clock_delay_usec
  D:00B8H         PUBLIC        IP
  C:3B48H         PUBLIC        clock_time
  C:3BF0H         PUBLIC        clock_init
  C:312CH         PUBLIC        _clock_wait
  X:026BH         SYMBOL        count
  C:13DCH         PUBLIC        intersvr1
  D:0098H         PUBLIC        SCON
  D:0088H         PUBLIC        TCON
  X:026FH         PUBLIC        pwm_counter
  X:0270H         PUBLIC        top
  C:3B7BH         PUBLIC        clock_seconds
  D:00C8H         PUBLIC        T2CON
  X:0271H         SYMBOL        seconds
  D:00D0H         PUBLIC        PSW
  C:33F1H         SYMBOL        Com0029
  C:33F1H         SYMBOL        L?0042
  C:33F4H         SYMBOL        L?0043
  C:33FFH         SYMBOL        L?0044
  C:340EH         SYMBOL        L?0045
  -------         PROC          COM0029
  -------         ENDPROC       COM0029
  -------         PROC          _CLOCK_DELAY_USEC
  D:0006H         SYMBOL        len
  C:3B02H         LINE#         54
  C:3B02H         LINE#         55
  C:3B02H         LINE#         56
  C:3B04H         LINE#         57
  C:3B0EH         LINE#         59
  C:3B0EH         LINE#         60
  C:3B10H         LINE#         61
  -------         ENDPROC       _CLOCK_DELAY_USEC
  -------         PROC          _CLOCK_WAIT
  X:02AFH         SYMBOL        i
  -------         DO            
  X:02B3H         SYMBOL        start
  -------         ENDDO         
  C:312CH         LINE#         67
  C:3132H         LINE#         68
  C:3132H         LINE#         71
  C:313BH         LINE#         72
  C:315DH         LINE#         73
  -------         ENDPROC       _CLOCK_WAIT
  -------         PROC          CLOCK_TIME
  -------         DO            
  D:0004H         SYMBOL        c
  -------         ENDDO         
  C:3B48H         LINE#         76
  C:3B48H         LINE#         77
BL51 BANKED LINKER/LOCATER V6.22                                                      06/26/2021  00:39:09  PAGE 31


  C:3B48H         LINE#         79
  C:3B4AH         LINE#         80
  C:3B51H         LINE#         81
  C:3B53H         LINE#         82
  C:3B53H         LINE#         83
  -------         ENDPROC       CLOCK_TIME
  -------         PROC          CLOCK_SECONDS
  -------         DO            
  D:0004H         SYMBOL        s
  -------         ENDDO         
  C:3B7BH         LINE#         86
  C:3B7BH         LINE#         87
  C:3B7BH         LINE#         89
  C:3B7DH         LINE#         90
  C:3B81H         LINE#         91
  C:3B83H         LINE#         92
  C:3B83H         LINE#         93
  -------         ENDPROC       CLOCK_SECONDS
  -------         PROC          CLOCK_INIT
  C:3BF0H         LINE#         96
  C:3BF0H         LINE#         97
  C:3BF0H         LINE#         98
  -------         ENDPROC       CLOCK_INIT
  -------         PROC          INTERSVR1
  C:13DCH         LINE#         104
  C:1400H         LINE#         106
  C:140EH         LINE#         107
  C:1414H         LINE#         108
  C:142AH         LINE#         109
  C:142DH         LINE#         110
  C:143EH         LINE#         111
  C:1445H         LINE#         112
  C:1447H         LINE#         113
  C:1451H         LINE#         114
  C:1469H         LINE#         115
  C:1472H         LINE#         116
  C:1472H         LINE#         119
  C:14B4H         LINE#         120
  C:14B7H         LINE#         121
  C:14B7H         LINE#         122
  C:14B9H         LINE#         123
  -------         ENDPROC       INTERSVR1
  -------         ENDMOD        CLOCK

  -------         MODULE        RTIMER_ARCH
  C:0000H         SYMBOL        _ICE_DUMMY_
  D:0090H         PUBLIC        P1
  D:00C0H         PUBLIC        XICON
  D:00B0H         PUBLIC        P3
  D:00A8H         PUBLIC        IE
  D:00B8H         PUBLIC        IP
  C:001EH         PUBLIC        rtimer_arch_init
  D:0098H         PUBLIC        SCON
  D:0088H         PUBLIC        TCON
  C:2B64H         PUBLIC        rtimer_isr
  C:3B5FH         PUBLIC        _rtimer_arch_schedule
  D:008CH         PUBLIC        TH0
BL51 BANKED LINKER/LOCATER V6.22                                                      06/26/2021  00:39:09  PAGE 32


  D:00C8H         PUBLIC        T2CON
  D:00D0H         PUBLIC        PSW
  -------         PROC          RTIMER_ARCH_INIT
  C:001EH         LINE#         56
  C:001EH         LINE#         57
  C:001EH         LINE#         58
  -------         ENDPROC       RTIMER_ARCH_INIT
  -------         PROC          _RTIMER_ARCH_SCHEDULE
  D:0007H         SYMBOL        t
  C:3B5FH         LINE#         62
  C:3B5FH         LINE#         63
  C:3B5FH         LINE#         65
  C:3B64H         LINE#         66
  -------         ENDPROC       _RTIMER_ARCH_SCHEDULE
  -------         PROC          RTIMER_ISR
  C:2B64H         LINE#         68
  C:2B88H         LINE#         70
  C:2B8DH         LINE#         71
  C:2B90H         LINE#         72
  -------         ENDPROC       RTIMER_ISR
  -------         ENDMOD        RTIMER_ARCH

  -------         MODULE        ETIMER
  C:0000H         SYMBOL        _ICE_DUMMY_
  D:0090H         PUBLIC        P1
  D:00C0H         PUBLIC        XICON
  D:00B0H         PUBLIC        P3
  D:00A8H         PUBLIC        IE
  C:3821H         PUBLIC        _etimer_reset
  C:3B84H         PUBLIC        etimer_request_poll
  C:240CH         SYMBOL        update_time
  D:00B8H         PUBLIC        IP
  C:341AH         PUBLIC        _etimer_reset_with_new_interval
  C:3BC8H         PUBLIC        _etimer_start_time
  C:1C21H         SYMBOL        _add_timer
  C:0AE0H         SYMBOL        _process_thread_etimer_process
  C:1791H         PUBLIC        _etimer_stop
  D:0098H         PUBLIC        SCON
  D:0088H         PUBLIC        TCON
  C:3808H         PUBLIC        _etimer_set
  C:3B3BH         PUBLIC        _etimer_expiration_time
  C:3A52H         PUBLIC        etimer_pending
  C:398AH         PUBLIC        _etimer_expired
  X:0210H         SYMBOL        timerlist
  D:00C8H         PUBLIC        T2CON
  C:3924H         PUBLIC        etimer_next_expiration_time
  X:0213H         SYMBOL        next_expiration
  X:0217H         PUBLIC        etimer_process
  C:383AH         PUBLIC        _etimer_restart
  C:3601H         PUBLIC        _etimer_adjust
  D:00D0H         PUBLIC        PSW
  C:2518H         SYMBOL        Com0051
  C:2518H         SYMBOL        L?0082
  C:2518H         SYMBOL        L?0083
  C:251BH         SYMBOL        L?0084
  C:2524H         SYMBOL        L?0085
  C:2524H         SYMBOL        L?0086
BL51 BANKED LINKER/LOCATER V6.22                                                      06/26/2021  00:39:09  PAGE 33


  C:253BH         SYMBOL        L?0087
  C:253CH         SYMBOL        L?0088
  C:253EH         SYMBOL        L?0089
  C:253FH         SYMBOL        L?0090
  C:2547H         SYMBOL        L?0091
  C:254EH         SYMBOL        L?0092
  C:2551H         SYMBOL        L?0093
  C:2559H         SYMBOL        L?0094
  C:2559H         SYMBOL        L?0095
  C:255FH         SYMBOL        L?0096
  C:255FH         SYMBOL        L?0097
  C:256DH         SYMBOL        L?0098
  C:256EH         SYMBOL        L?0099
  C:257AH         SYMBOL        L?0100
  C:257AH         SYMBOL        L?0101
  C:2586H         SYMBOL        L?0102
  C:2589H         SYMBOL        L?0103
  C:2590H         SYMBOL        L?0104
  C:2590H         SYMBOL        L?0105
  C:2596H         SYMBOL        L?0106
  C:2596H         SYMBOL        L?0107
  -------         PROC          COM0051
  -------         ENDPROC       COM0051
  -------         PROC          UPDATE_TIME
  -------         DO            
  X:0195H         SYMBOL        tdist
  X:0199H         SYMBOL        now
  X:019DH         SYMBOL        t
  -------         ENDDO         
  C:240CH         LINE#         58
  C:240CH         LINE#         59
  C:240CH         LINE#         64
  C:2411H         LINE#         65
  C:2419H         LINE#         66
  C:241AH         LINE#         67
  C:2423H         LINE#         68
  C:242DH         LINE#         70
  C:243AH         LINE#         71
  C:2446H         LINE#         72
  C:2459H         LINE#         73
  C:246CH         LINE#         74
  C:246CH         LINE#         75
  C:247FH         LINE#         76
  C:2492H         LINE#         77
  C:2492H         LINE#         78
  -------         ENDPROC       UPDATE_TIME
  -------         PROC          _PROCESS_THREAD_ETIMER_PROCESS
  X:017BH         SYMBOL        process_pt
  X:017EH         SYMBOL        ev
  X:017FH         SYMBOL        dataa
  -------         DO            
  X:0182H         SYMBOL        t
  X:0185H         SYMBOL        u
  C:0BFFH         SYMBOL        again
  -------         DO            
  X:0188H         SYMBOL        PT_YIELD_FLAG
  -------         DO            
BL51 BANKED LINKER/LOCATER V6.22                                                      06/26/2021  00:39:09  PAGE 34


  X:0189H         SYMBOL        p
  -------         ENDDO         
  -------         ENDDO         
  -------         ENDDO         
  C:0AE0H         LINE#         80
  C:0AEAH         LINE#         81
  C:0AEAH         LINE#         82
  C:0AEAH         LINE#         84
  C:0B0FH         LINE#         86
  C:0B18H         LINE#         88
  C:0B18H         LINE#         89
  C:0B33H         LINE#         91
  C:0B3EH         LINE#         92
  C:0B47H         LINE#         94
  C:0B72H         LINE#         95
  C:0B7FH         LINE#         96
  C:0B81H         LINE#         98
  C:0B85H         LINE#         99
  C:0B92H         LINE#         100
  C:0BA2H         LINE#         101
  C:0BC7H         LINE#         102
  C:0BE2H         LINE#         103
  C:0BE4H         LINE#         104
  C:0BF1H         LINE#         105
  C:0BF4H         LINE#         106
  C:0BF4H         LINE#         107
  C:0BF4H         LINE#         108
  C:0BFFH         LINE#         109
  C:0BFFH         LINE#         110
  C:0BFFH         LINE#         112
  C:0BFFH         LINE#         114
  C:0C08H         LINE#         116
  C:0C21H         LINE#         117
  C:0C2BH         LINE#         118
  C:0C52H         LINE#         123
  C:0C67H         LINE#         124
  C:0C72H         LINE#         125
  C:0C8AH         LINE#         126
  C:0C8CH         LINE#         127
  C:0C92H         LINE#         128
  C:0C92H         LINE#         129
  C:0CA7H         LINE#         130
  C:0CAAH         LINE#         131
  C:0CADH         LINE#         132
  C:0CADH         LINE#         133
  C:0CB0H         LINE#         134
  C:0CB0H         LINE#         135
  C:0CB0H         LINE#         136
  C:0CBBH         LINE#         137
  C:0CD1H         LINE#         139
  C:0CD1H         LINE#         141
  C:0CE4H         LINE#         142
  -------         ENDPROC       _PROCESS_THREAD_ETIMER_PROCESS
  -------         PROC          ETIMER_REQUEST_POLL
  C:3B84H         LINE#         145
  C:3B84H         LINE#         146
  C:3B84H         LINE#         147
BL51 BANKED LINKER/LOCATER V6.22                                                      06/26/2021  00:39:09  PAGE 35


  -------         ENDPROC       ETIMER_REQUEST_POLL
  -------         PROC          _ADD_TIMER
  X:018FH         SYMBOL        timer
  -------         DO            
  X:0192H         SYMBOL        t
  -------         ENDDO         
  C:1C21H         LINE#         151
  C:1C28H         LINE#         152
  C:1C28H         LINE#         155
  C:1C2BH         LINE#         157
  C:1C38H         LINE#         158
  C:1C4CH         LINE#         159
  C:1C6FH         LINE#         161
  C:1C87H         LINE#         162
  C:1C89H         LINE#         164
  C:1C89H         LINE#         165
  C:1C9BH         LINE#         166
  C:1C9BH         LINE#         169
  C:1CB3H         LINE#         170
  C:1CC8H         LINE#         171
  C:1CD2H         LINE#         173
  C:1CD5H         LINE#         174
  -------         ENDPROC       _ADD_TIMER
  -------         PROC          _ETIMER_SET
  X:018CH         SYMBOL        et
  D:0004H         SYMBOL        interval
  C:3808H         LINE#         177
  C:380FH         LINE#         178
  C:380FH         LINE#         179
  C:3818H         LINE#         180
  -------         ENDPROC       _ETIMER_SET
  -------         PROC          _ETIMER_RESET_WITH_NEW_INTERVAL
  X:02BEH         SYMBOL        et
  X:02C1H         SYMBOL        interval
  C:341AH         LINE#         184
  C:3425H         LINE#         185
  C:3425H         LINE#         186
  C:342EH         LINE#         187
  C:3440H         LINE#         188
  -------         ENDPROC       _ETIMER_RESET_WITH_NEW_INTERVAL
  -------         PROC          _ETIMER_RESET
  X:02F8H         SYMBOL        et
  C:3821H         LINE#         192
  C:3828H         LINE#         193
  C:3828H         LINE#         194
  C:3831H         LINE#         195
  -------         ENDPROC       _ETIMER_RESET
  -------         PROC          _ETIMER_RESTART
  X:018CH         SYMBOL        et
  C:383AH         LINE#         199
  C:3841H         LINE#         200
  C:3841H         LINE#         201
  C:384AH         LINE#         202
  -------         ENDPROC       _ETIMER_RESTART
  -------         PROC          _ETIMER_ADJUST
  D:0001H         SYMBOL        et
  D:0004H         SYMBOL        timediff
BL51 BANKED LINKER/LOCATER V6.22                                                      06/26/2021  00:39:09  PAGE 36


  C:3601H         LINE#         206
  C:3601H         LINE#         207
  C:3601H         LINE#         208
  C:3620H         LINE#         209
  -------         ENDPROC       _ETIMER_ADJUST
  -------         PROC          _ETIMER_EXPIRED
  D:0001H         SYMBOL        et
  C:398AH         LINE#         213
  C:398AH         LINE#         214
  C:398AH         LINE#         215
  C:399CH         LINE#         216
  -------         ENDPROC       _ETIMER_EXPIRED
  -------         PROC          _ETIMER_EXPIRATION_TIME
  D:0001H         SYMBOL        et
  C:3B3BH         LINE#         219
  C:3B3BH         LINE#         220
  C:3B3BH         LINE#         221
  C:3B47H         LINE#         222
  -------         ENDPROC       _ETIMER_EXPIRATION_TIME
  -------         PROC          _ETIMER_START_TIME
  D:0001H         SYMBOL        et
  C:3BC8H         LINE#         225
  C:3BC8H         LINE#         226
  C:3BC8H         LINE#         227
  C:3BCBH         LINE#         228
  -------         ENDPROC       _ETIMER_START_TIME
  -------         PROC          ETIMER_PENDING
  C:3A52H         LINE#         231
  C:3A52H         LINE#         232
  C:3A52H         LINE#         233
  C:3A62H         LINE#         234
  -------         ENDPROC       ETIMER_PENDING
  -------         PROC          ETIMER_NEXT_EXPIRATION_TIME
  C:3924H         LINE#         237
  C:3924H         LINE#         238
  C:3924H         LINE#         239
  C:3938H         LINE#         240
  -------         ENDPROC       ETIMER_NEXT_EXPIRATION_TIME
  -------         PROC          _ETIMER_STOP
  X:02C5H         SYMBOL        et
  -------         DO            
  X:02C8H         SYMBOL        t
  -------         ENDDO         
  C:1791H         LINE#         243
  C:1798H         LINE#         244
  C:1798H         LINE#         248
  C:17BAH         LINE#         249
  C:17C0H         LINE#         250
  C:17C0H         LINE#         251
  C:17C3H         LINE#         254
  C:180FH         LINE#         256
  C:1813H         LINE#         260
  C:182EH         LINE#         262
  C:1831H         LINE#         263
  C:1831H         LINE#         264
  C:1831H         LINE#         267
  C:1846H         LINE#         269
BL51 BANKED LINKER/LOCATER V6.22                                                      06/26/2021  00:39:09  PAGE 37


  C:185BH         LINE#         270
  -------         ENDPROC       _ETIMER_STOP
  -------         ENDMOD        ETIMER

  -------         MODULE        PROCESS
  C:0000H         SYMBOL        _ICE_DUMMY_
  D:0090H         PUBLIC        P1
  C:19EDH         SYMBOL        _call_process
  D:00C0H         PUBLIC        XICON
  D:00B0H         PUBLIC        P3
  X:0000H         SYMBOL        nevents
  X:0001H         SYMBOL        fevent
  D:00A8H         PUBLIC        IE
  C:1925H         PUBLIC        _process_start
  X:0002H         SYMBOL        events
  D:00B8H         PUBLIC        IP
  C:3551H         PUBLIC        process_init
  C:3093H         PUBLIC        _process_poll
  C:0CE5H         SYMBOL        _exit_process
  C:38B4H         PUBLIC        _process_exit
  X:00E2H         PUBLIC        process_list
  C:3B1FH         PUBLIC        _process_is_running
  C:2C92H         PUBLIC        _process_post
  D:0098H         PUBLIC        SCON
  D:0088H         PUBLIC        TCON
  C:3226H         PUBLIC        _process_post_synch
  C:3AB4H         PUBLIC        process_run
  X:00E5H         PUBLIC        global_dataa
  C:1D87H         SYMBOL        do_event
  X:00E8H         SYMBOL        lastevent
  D:00C8H         PUBLIC        T2CON
  C:3BCCH         PUBLIC        process_nevents
  X:00E9H         PUBLIC        process_current
  C:2A73H         SYMBOL        do_poll
  X:00ECH         SYMBOL        poll_requested
  C:3B8DH         PUBLIC        process_alloc_event
  D:00D0H         PUBLIC        PSW
  C:2148H         SYMBOL        Com0054
  C:2148H         SYMBOL        L?0085
  C:2148H         SYMBOL        L?0086
  C:214BH         SYMBOL        L?0087
  C:2153H         SYMBOL        L?0088
  C:2153H         SYMBOL        L?0089
  C:215DH         SYMBOL        L?0090
  C:215EH         SYMBOL        L?0091
  C:2166H         SYMBOL        L?0092
  C:2166H         SYMBOL        L?0093
  C:2169H         SYMBOL        L?0094
  C:2171H         SYMBOL        L?0095
  C:2171H         SYMBOL        L?0096
  C:2172H         SYMBOL        L?0097
  C:2174H         SYMBOL        L?0098
  C:217AH         SYMBOL        L?0099
  C:217FH         SYMBOL        L?0100
  C:2186H         SYMBOL        L?0101
  C:2189H         SYMBOL        L?0102
  C:2190H         SYMBOL        L?0103
BL51 BANKED LINKER/LOCATER V6.22                                                      06/26/2021  00:39:09  PAGE 38


  C:219FH         SYMBOL        L?0104
  C:21AEH         SYMBOL        L?0105
  C:21BDH         SYMBOL        L?0106
  C:21CBH         SYMBOL        L?0107
  C:21CBH         SYMBOL        L?0108
  C:21D1H         SYMBOL        L?0109
  -------         PROC          COM0054
  -------         ENDPROC       COM0054
  -------         PROC          PROCESS_ALLOC_EVENT
  C:3B8DH         LINE#         85
  C:3B8DH         LINE#         86
  C:3B8DH         LINE#         87
  C:3B94H         LINE#         88
  -------         ENDPROC       PROCESS_ALLOC_EVENT
  -------         PROC          _PROCESS_START
  X:017BH         SYMBOL        p
  X:017EH         SYMBOL        dataa
  -------         DO            
  X:0181H         SYMBOL        q
  -------         ENDDO         
  C:1925H         LINE#         91
  C:192CH         LINE#         92
  C:192CH         LINE#         97
  C:1975H         LINE#         100
  C:199CH         LINE#         102
  C:199CH         LINE#         104
  C:19B3H         LINE#         105
  C:19BFH         LINE#         106
  C:19CAH         LINE#         107
  C:19D3H         LINE#         112
  C:19ECH         LINE#         113
  -------         ENDPROC       _PROCESS_START
  -------         PROC          _EXIT_PROCESS
  X:0275H         SYMBOL        p
  X:0278H         SYMBOL        fromprocess
  -------         DO            
  X:027BH         SYMBOL        q
  X:027EH         SYMBOL        old_current
  -------         ENDDO         
  C:0CE5H         LINE#         116
  C:0CECH         LINE#         117
  C:0CECH         LINE#         119
  C:0CF8H         LINE#         125
  C:0D3BH         LINE#         126
  C:0D48H         LINE#         128
  C:0D48H         LINE#         130
  C:0D56H         LINE#         132
  C:0D5EH         LINE#         139
  C:0D71H         LINE#         140
  C:0D95H         LINE#         141
  C:0DA7H         LINE#         142
  C:0DA7H         LINE#         143
  C:0DBAH         LINE#         145
  C:0DE9H         LINE#         147
  C:0DF5H         LINE#         148
  C:0E29H         LINE#         149
  C:0E29H         LINE#         150
BL51 BANKED LINKER/LOCATER V6.22                                                      06/26/2021  00:39:09  PAGE 39


  C:0E29H         LINE#         152
  C:0E4DH         LINE#         153
  C:0E5EH         LINE#         154
  C:0E61H         LINE#         155
  C:0E74H         LINE#         156
  C:0E94H         LINE#         157
  C:0EABH         LINE#         158
  C:0EADH         LINE#         159
  C:0EADH         LINE#         160
  C:0EC0H         LINE#         161
  C:0EC0H         LINE#         163
  C:0ECCH         LINE#         164
  -------         ENDPROC       _EXIT_PROCESS
  -------         PROC          _CALL_PROCESS
  X:018EH         SYMBOL        p
  X:0191H         SYMBOL        ev
  X:0192H         SYMBOL        dataa
  -------         DO            
  D:0006H         SYMBOL        ret
  -------         ENDDO         
  C:19EDH         LINE#         171
  C:19F9H         LINE#         172
  C:19F9H         LINE#         175
  C:1A13H         LINE#         176
  C:1A1FH         LINE#         177
  C:1A2AH         LINE#         178
  C:1A36H         LINE#         179
  C:1A76H         LINE#         180
  C:1A82H         LINE#         181
  C:1A93H         LINE#         183
  C:1A93H         LINE#         184
  C:1AA5H         LINE#         185
  C:1AA5H         LINE#         186
  C:1AAEH         LINE#         187
  C:1AAEH         LINE#         188
  C:1AAEH         LINE#         189
  -------         ENDPROC       _CALL_PROCESS
  -------         PROC          _PROCESS_EXIT
  D:0001H         SYMBOL        p
  C:38B4H         LINE#         192
  C:38B4H         LINE#         193
  C:38B4H         LINE#         194
  -------         ENDPROC       _PROCESS_EXIT
  -------         PROC          PROCESS_INIT
  C:3551H         LINE#         198
  C:3551H         LINE#         199
  C:3551H         LINE#         200
  C:3557H         LINE#         202
  C:3560H         LINE#         207
  C:3574H         LINE#         208
  -------         ENDPROC       PROCESS_INIT
  -------         PROC          DO_POLL
  -------         DO            
  X:0185H         SYMBOL        p
  -------         ENDDO         
  C:2A73H         LINE#         215
  C:2A73H         LINE#         216
BL51 BANKED LINKER/LOCATER V6.22                                                      06/26/2021  00:39:09  PAGE 40


  C:2A73H         LINE#         219
  C:2A78H         LINE#         221
  C:2A8BH         LINE#         222
  C:2A9AH         LINE#         223
  C:2A9DH         LINE#         224
  C:2AA4H         LINE#         225
  C:2AB2H         LINE#         226
  C:2AB2H         LINE#         227
  C:2AC5H         LINE#         228
  -------         ENDPROC       DO_POLL
  -------         PROC          DO_EVENT
  -------         DO            
  X:017BH         SYMBOL        ev
  X:017CH         SYMBOL        dataa
  X:017FH         SYMBOL        receiver
  X:0182H         SYMBOL        p
  -------         ENDDO         
  C:1D87H         LINE#         236
  C:1D87H         LINE#         237
  C:1D87H         LINE#         251
  C:1D93H         LINE#         254
  C:1D9DH         LINE#         256
  C:1DA9H         LINE#         257
  C:1DB9H         LINE#         261
  C:1DC1H         LINE#         262
  C:1DC7H         LINE#         266
  C:1DD1H         LINE#         267
  C:1DE4H         LINE#         271
  C:1DEAH         LINE#         272
  C:1DEDH         LINE#         273
  C:1DEDH         LINE#         274
  C:1E00H         LINE#         275
  C:1E13H         LINE#         276
  C:1E13H         LINE#         281
  C:1E1BH         LINE#         282
  C:1E24H         LINE#         283
  C:1E24H         LINE#         286
  C:1E34H         LINE#         287
  C:1E34H         LINE#         288
  C:1E34H         LINE#         289
  -------         ENDPROC       DO_EVENT
  -------         PROC          PROCESS_RUN
  C:3AB4H         LINE#         292
  C:3AB4H         LINE#         293
  C:3AB4H         LINE#         295
  C:3ABAH         LINE#         296
  C:3ABDH         LINE#         297
  C:3ABDH         LINE#         300
  C:3AC0H         LINE#         302
  C:3AC3H         LINE#         304
  -------         ENDPROC       PROCESS_RUN
  -------         PROC          PROCESS_NEVENTS
  C:3BCCH         LINE#         307
  C:3BCCH         LINE#         308
  C:3BCCH         LINE#         309
  C:3BCFH         LINE#         310
  -------         ENDPROC       PROCESS_NEVENTS
BL51 BANKED LINKER/LOCATER V6.22                                                      06/26/2021  00:39:09  PAGE 41


  -------         PROC          _PROCESS_POST
  X:018CH         SYMBOL        p
  D:0005H         SYMBOL        ev
  X:0190H         SYMBOL        dataa
  -------         DO            
  D:0007H         SYMBOL        snum
  -------         ENDDO         
  C:2C92H         LINE#         313
  C:2C99H         LINE#         314
  C:2C99H         LINE#         317
  C:2C99H         LINE#         319
  C:2C99H         LINE#         321
  C:2C99H         LINE#         323
  C:2CA1H         LINE#         324
  C:2CA6H         LINE#         325
  C:2CA6H         LINE#         327
  C:2CADH         LINE#         328
  C:2CB2H         LINE#         329
  C:2CC0H         LINE#         330
  C:2CCFH         LINE#         331
  C:2CD5H         LINE#         339
  C:2CD8H         LINE#         340
  -------         ENDPROC       _PROCESS_POST
  -------         PROC          _PROCESS_POST_SYNCH
  X:0184H         SYMBOL        p
  D:0005H         SYMBOL        ev
  X:0188H         SYMBOL        dataa
  -------         DO            
  X:018BH         SYMBOL        caller
  -------         ENDDO         
  C:3226H         LINE#         343
  C:322DH         LINE#         344
  C:322DH         LINE#         345
  C:3239H         LINE#         347
  C:3249H         LINE#         348
  C:3255H         LINE#         349
  -------         ENDPROC       _PROCESS_POST_SYNCH
  -------         PROC          _PROCESS_POLL
  X:0195H         SYMBOL        p
  C:3093H         LINE#         352
  C:309AH         LINE#         353
  C:309AH         LINE#         354
  C:30A4H         LINE#         355
  C:30B7H         LINE#         356
  C:30B7H         LINE#         357
  C:30BFH         LINE#         358
  C:30C5H         LINE#         359
  C:30C5H         LINE#         360
  C:30C5H         LINE#         361
  -------         ENDPROC       _PROCESS_POLL
  -------         PROC          _PROCESS_IS_RUNNING
  D:0001H         SYMBOL        p
  C:3B1FH         LINE#         364
  C:3B1FH         LINE#         365
  C:3B1FH         LINE#         366
  C:3B2CH         LINE#         367
  -------         ENDPROC       _PROCESS_IS_RUNNING
BL51 BANKED LINKER/LOCATER V6.22                                                      06/26/2021  00:39:09  PAGE 42


  -------         ENDMOD        PROCESS

  -------         MODULE        TIMER
  C:0000H         SYMBOL        _ICE_DUMMY_
  D:0090H         PUBLIC        P1
  D:00C0H         PUBLIC        XICON
  D:00B0H         PUBLIC        P3
  D:00A8H         PUBLIC        IE
  C:39FAH         PUBLIC        _timer_restart
  D:00B8H         PUBLIC        IP
  C:2F8AH         PUBLIC        _timer_reset
  D:0098H         PUBLIC        SCON
  D:0088H         PUBLIC        TCON
  C:2F1AH         PUBLIC        _timer_remaining
  C:386CH         PUBLIC        _timer_set
  D:00C8H         PUBLIC        T2CON
  C:2BFFH         PUBLIC        _timer_expired
  D:00D0H         PUBLIC        PSW
  C:35BBH         SYMBOL        Com0008
  C:35BBH         SYMBOL        L?0009
  C:35BEH         SYMBOL        L?0010
  C:35C7H         SYMBOL        L?0011
  C:35C7H         SYMBOL        L?0012
  C:35D0H         SYMBOL        L?0013
  -------         PROC          COM0008
  -------         ENDPROC       COM0008
  -------         PROC          _TIMER_SET
  X:018FH         SYMBOL        t
  D:0004H         SYMBOL        interval
  C:386CH         LINE#         64
  C:3872H         LINE#         65
  C:3872H         LINE#         66
  C:3878H         LINE#         67
  -------         ENDPROC       _TIMER_SET
  -------         PROC          _TIMER_RESET
  X:02FBH         SYMBOL        t
  C:2F8AH         LINE#         85
  C:2F90H         LINE#         86
  C:2F90H         LINE#         87
  -------         ENDPROC       _TIMER_RESET
  -------         PROC          _TIMER_RESTART
  X:018FH         SYMBOL        t
  C:39FAH         LINE#         105
  C:3A00H         LINE#         106
  C:3A00H         LINE#         107
  -------         ENDPROC       _TIMER_RESTART
  -------         PROC          _TIMER_EXPIRED
  X:018CH         SYMBOL        t
  -------         DO            
  X:018FH         SYMBOL        diff
  -------         ENDDO         
  C:2BFFH         LINE#         122
  C:2C05H         LINE#         123
  C:2C05H         LINE#         126
  C:2C24H         LINE#         127
  C:2C49H         LINE#         129
  -------         ENDPROC       _TIMER_EXPIRED
BL51 BANKED LINKER/LOCATER V6.22                                                      06/26/2021  00:39:09  PAGE 43


  -------         PROC          _TIMER_REMAINING
  X:02FEH         SYMBOL        t
  C:2F1AH         LINE#         142
  C:2F20H         LINE#         143
  C:2F20H         LINE#         144
  C:2F51H         LINE#         145
  -------         ENDPROC       _TIMER_REMAINING
  -------         ENDMOD        TIMER

  -------         MODULE        STIMER
  C:0000H         SYMBOL        _ICE_DUMMY_
  D:0090H         PUBLIC        P1
  C:3A0CH         PUBLIC        _stimer_restart
  D:00C0H         PUBLIC        XICON
  D:00B0H         PUBLIC        P3
  D:00A8H         PUBLIC        IE
  D:00B8H         PUBLIC        IP
  C:2FC0H         PUBLIC        _stimer_reset
  D:0098H         PUBLIC        SCON
  D:0088H         PUBLIC        TCON
  C:3256H         PUBLIC        _stimer_remaining
  C:3884H         PUBLIC        _stimer_set
  C:38F9H         PUBLIC        _stimer_elapsed
  D:00C8H         PUBLIC        T2CON
  C:2D1FH         PUBLIC        _stimer_expired
  D:00D0H         PUBLIC        PSW
  C:3344H         SYMBOL        Com0009
  C:3344H         SYMBOL        L?0010
  C:3344H         SYMBOL        L?0011
  C:334DH         SYMBOL        L?0012
  C:334DH         SYMBOL        L?0013
  C:3356H         SYMBOL        L?0014
  C:3356H         SYMBOL        L?0015
  C:3364H         SYMBOL        L?0016
  -------         PROC          COM0009
  -------         ENDPROC       COM0009
  -------         PROC          _STIMER_SET
  X:0301H         SYMBOL        t
  D:0004H         SYMBOL        interval
  C:3884H         LINE#         67
  C:388AH         LINE#         68
  C:388AH         LINE#         69
  C:3890H         LINE#         70
  -------         ENDPROC       _STIMER_SET
  -------         PROC          _STIMER_RESET
  X:0304H         SYMBOL        t
  C:2FC0H         LINE#         87
  C:2FC6H         LINE#         88
  C:2FC6H         LINE#         89
  -------         ENDPROC       _STIMER_RESET
  -------         PROC          _STIMER_RESTART
  X:0307H         SYMBOL        t
  C:3A0CH         LINE#         107
  C:3A12H         LINE#         108
  C:3A12H         LINE#         109
  -------         ENDPROC       _STIMER_RESTART
  -------         PROC          _STIMER_EXPIRED
BL51 BANKED LINKER/LOCATER V6.22                                                      06/26/2021  00:39:09  PAGE 44


  X:030AH         SYMBOL        t
  C:2D1FH         LINE#         124
  C:2D25H         LINE#         125
  C:2D25H         LINE#         126
  C:2D63H         LINE#         127
  -------         ENDPROC       _STIMER_EXPIRED
  -------         PROC          _STIMER_REMAINING
  X:030DH         SYMBOL        t
  C:3256H         LINE#         140
  C:325CH         LINE#         141
  C:325CH         LINE#         142
  C:3285H         LINE#         143
  -------         ENDPROC       _STIMER_REMAINING
  -------         PROC          _STIMER_ELAPSED
  X:0310H         SYMBOL        t
  C:38F9H         LINE#         156
  C:38FFH         LINE#         157
  C:38FFH         LINE#         158
  C:390EH         LINE#         159
  -------         ENDPROC       _STIMER_ELAPSED
  -------         ENDMOD        STIMER

  -------         MODULE        CTIMER
  C:0000H         SYMBOL        _ICE_DUMMY_
  D:0090H         PUBLIC        P1
  D:00C0H         PUBLIC        XICON
  D:00B0H         PUBLIC        P3
  D:00A8H         PUBLIC        IE
  C:315EH         PUBLIC        _ctimer_reset
  D:00B8H         PUBLIC        IP
  X:0221H         SYMBOL        initialized
  C:3709H         PUBLIC        ctimer_init
  X:0222H         SYMBOL        ctimer_list
  C:0ECDH         SYMBOL        _process_thread_ctimer_process
  C:2A1CH         PUBLIC        _ctimer_stop
  D:0098H         PUBLIC        SCON
  D:0088H         PUBLIC        TCON
  C:30C6H         PUBLIC        _ctimer_set
  C:201DH         PUBLIC        _ctimer_set_with_process
  X:0225H         SYMBOL        ctimer_list_list
  C:27D7H         PUBLIC        _ctimer_expired
  D:00C8H         PUBLIC        T2CON
  X:0228H         PUBLIC        ctimer_process
  C:3190H         PUBLIC        _ctimer_restart
  D:00D0H         PUBLIC        PSW
  C:283DH         SYMBOL        Com002E
  C:283DH         SYMBOL        L?0047
  C:283DH         SYMBOL        L?0048
  C:2847H         SYMBOL        L?0049
  C:284FH         SYMBOL        L?0050
  C:2852H         SYMBOL        L?0051
  C:2854H         SYMBOL        L?0052
  C:285BH         SYMBOL        L?0053
  C:285BH         SYMBOL        L?0054
  C:2863H         SYMBOL        L?0055
  C:2866H         SYMBOL        L?0056
  C:286EH         SYMBOL        L?0057
BL51 BANKED LINKER/LOCATER V6.22                                                      06/26/2021  00:39:09  PAGE 45


  C:286EH         SYMBOL        L?0058
  C:2875H         SYMBOL        L?0059
  C:287CH         SYMBOL        L?0060
  C:287CH         SYMBOL        L?0061
  C:287FH         SYMBOL        L?0062
  C:2887H         SYMBOL        L?0063
  C:2887H         SYMBOL        L?0064
  C:2896H         SYMBOL        L?0065
  -------         PROC          COM002E
  -------         ENDPROC       COM002E
  -------         PROC          _PROCESS_THREAD_CTIMER_PROCESS
  X:017BH         SYMBOL        process_pt
  X:017EH         SYMBOL        ev
  X:017FH         SYMBOL        dataa
  -------         DO            
  X:0182H         SYMBOL        c
  -------         DO            
  X:0185H         SYMBOL        PT_YIELD_FLAG
  -------         DO            
  X:0186H         SYMBOL        tmp_current
  -------         ENDDO         
  -------         ENDDO         
  -------         ENDDO         
  C:0ECDH         LINE#         55
  C:0ED7H         LINE#         56
  C:0ED7H         LINE#         57
  C:0ED7H         LINE#         58
  C:0EFCH         LINE#         60
  C:0F0DH         LINE#         61
  C:0F28H         LINE#         62
  C:0F3AH         LINE#         63
  C:0F40H         LINE#         65
  C:0F40H         LINE#         66
  C:0F68H         LINE#         67
  C:0F7AH         LINE#         68
  C:0F9DH         LINE#         69
  C:0FACH         LINE#         70
  C:0FC6H         LINE#         71
  C:0FD6H         LINE#         72
  C:1001H         LINE#         73
  C:1001H         LINE#         74
  C:1007H         LINE#         75
  C:100AH         LINE#         76
  C:100AH         LINE#         77
  C:101DH         LINE#         78
  C:101DH         LINE#         79
  C:1030H         LINE#         80
  -------         ENDPROC       _PROCESS_THREAD_CTIMER_PROCESS
  -------         PROC          CTIMER_INIT
  C:3709H         LINE#         83
  C:3709H         LINE#         84
  C:3709H         LINE#         85
  C:370EH         LINE#         86
  C:3715H         LINE#         87
  -------         ENDPROC       CTIMER_INIT
  -------         PROC          _CTIMER_SET
  D:0001H         SYMBOL        c
BL51 BANKED LINKER/LOCATER V6.22                                                      06/26/2021  00:39:09  PAGE 46


  D:0004H         SYMBOL        t
  X:0256H         SYMBOL        f
  X:0259H         SYMBOL        ptr
  C:30C6H         LINE#         91
  C:30C6H         LINE#         93
  C:30C6H         LINE#         94
  -------         ENDPROC       _CTIMER_SET
  -------         PROC          _CTIMER_SET_WITH_PROCESS
  X:01FDH         SYMBOL        c
  X:0200H         SYMBOL        t
  X:0204H         SYMBOL        f
  X:0207H         SYMBOL        ptr
  X:020AH         SYMBOL        p
  -------         DO            
  X:020DH         SYMBOL        tmp_current
  -------         ENDDO         
  C:201DH         LINE#         98
  C:2028H         LINE#         100
  C:2028H         LINE#         102
  C:2040H         LINE#         103
  C:2058H         LINE#         104
  C:2070H         LINE#         105
  C:2076H         LINE#         106
  C:2083H         LINE#         107
  C:2090H         LINE#         108
  C:2096H         LINE#         109
  C:2098H         LINE#         110
  C:20AAH         LINE#         111
  C:20AAH         LINE#         113
  -------         ENDPROC       _CTIMER_SET_WITH_PROCESS
  -------         PROC          _CTIMER_RESET
  X:02CBH         SYMBOL        c
  -------         DO            
  X:02CEH         SYMBOL        tmp_current
  -------         ENDDO         
  C:315EH         LINE#         117
  C:3165H         LINE#         118
  C:3165H         LINE#         119
  C:316BH         LINE#         120
  C:3178H         LINE#         121
  C:3181H         LINE#         122
  C:3187H         LINE#         123
  C:3187H         LINE#         125
  -------         ENDPROC       _CTIMER_RESET
  -------         PROC          _CTIMER_RESTART
  X:02D1H         SYMBOL        c
  -------         DO            
  X:02D4H         SYMBOL        tmp_current
  -------         ENDDO         
  C:3190H         LINE#         129
  C:3197H         LINE#         130
  C:3197H         LINE#         131
  C:319DH         LINE#         132
  C:31AAH         LINE#         133
  C:31B3H         LINE#         134
  C:31B9H         LINE#         135
  C:31B9H         LINE#         137
BL51 BANKED LINKER/LOCATER V6.22                                                      06/26/2021  00:39:09  PAGE 47


  -------         ENDPROC       _CTIMER_RESTART
  -------         PROC          _CTIMER_STOP
  X:0313H         SYMBOL        c
  C:2A1CH         LINE#         141
  C:2A23H         LINE#         142
  C:2A23H         LINE#         143
  C:2A29H         LINE#         144
  C:2A32H         LINE#         145
  C:2A34H         LINE#         146
  C:2A4CH         LINE#         147
  C:2A64H         LINE#         148
  C:2A64H         LINE#         149
  -------         ENDPROC       _CTIMER_STOP
  -------         PROC          _CTIMER_EXPIRED
  X:02D7H         SYMBOL        c
  -------         DO            
  X:02DAH         SYMBOL        t
  -------         ENDDO         
  C:27D7H         LINE#         153
  C:27DEH         LINE#         154
  C:27DEH         LINE#         156
  C:27E4H         LINE#         157
  C:27EDH         LINE#         158
  C:27EDH         LINE#         159
  C:2800H         LINE#         160
  C:2823H         LINE#         161
  C:2826H         LINE#         162
  C:2826H         LINE#         163
  C:2838H         LINE#         164
  C:283CH         LINE#         165
  -------         ENDPROC       _CTIMER_EXPIRED
  -------         ENDMOD        CTIMER

  -------         MODULE        RTIMER
  C:0000H         SYMBOL        _ICE_DUMMY_
  D:0090H         PUBLIC        P1
  D:00C0H         PUBLIC        XICON
  D:00B0H         PUBLIC        P3
  D:00A8H         PUBLIC        IE
  D:00B8H         PUBLIC        IP
  C:3BF3H         PUBLIC        rtimer_init
  D:0098H         PUBLIC        SCON
  D:0088H         PUBLIC        TCON
  X:0316H         SYMBOL        next_rtimer
  C:2618H         PUBLIC        _rtimer_set
  D:00C8H         PUBLIC        T2CON
  C:28A2H         PUBLIC        rtimer_run_next
  D:00D0H         PUBLIC        PSW
  C:3939H         SYMBOL        Com0009
  C:3939H         SYMBOL        L?0010
  C:3939H         SYMBOL        L?0011
  C:393CH         SYMBOL        L?0012
  C:3945H         SYMBOL        L?0013
  C:3945H         SYMBOL        L?0014
  C:3946H         SYMBOL        L?0015
  -------         PROC          COM0009
  -------         ENDPROC       COM0009
BL51 BANKED LINKER/LOCATER V6.22                                                      06/26/2021  00:39:09  PAGE 48


  -------         PROC          RTIMER_INIT
  C:3BF3H         LINE#         53
  C:3BF3H         LINE#         54
  C:3BF3H         LINE#         55
  -------         ENDPROC       RTIMER_INIT
  -------         PROC          _RTIMER_SET
  X:025CH         SYMBOL        rtimer
  D:0005H         SYMBOL        time
  X:0260H         SYMBOL        duration
  X:0261H         SYMBOL        func
  X:0264H         SYMBOL        ptr
  -------         DO            
  X:0267H         SYMBOL        first
  -------         ENDDO         
  C:2618H         LINE#         60
  C:261EH         LINE#         63
  C:261EH         LINE#         64
  C:2625H         LINE#         66
  C:2630H         LINE#         67
  C:2637H         LINE#         68
  C:2637H         LINE#         70
  C:264CH         LINE#         71
  C:2661H         LINE#         73
  C:2668H         LINE#         74
  C:2679H         LINE#         76
  C:2685H         LINE#         77
  C:268AH         LINE#         78
  C:268AH         LINE#         79
  C:268DH         LINE#         80
  -------         ENDPROC       _RTIMER_SET
  -------         PROC          RTIMER_RUN_NEXT
  -------         DO            
  X:0177H         SYMBOL        t
  -------         ENDDO         
  C:28A2H         LINE#         83
  C:28A2H         LINE#         84
  C:28A2H         LINE#         86
  C:28ABH         LINE#         88
  C:28ABH         LINE#         89
  C:28B1H         LINE#         90
  C:28BAH         LINE#         91
  C:28F4H         LINE#         92
  C:28FDH         LINE#         93
  C:2904H         LINE#         94
  C:2904H         LINE#         96
  -------         ENDPROC       RTIMER_RUN_NEXT
  -------         ENDMOD        RTIMER

  -------         MODULE        LIST
  C:0000H         SYMBOL        _ICE_DUMMY_
  C:3962H         PUBLIC        _list_length
  C:1B6AH         PUBLIC        _list_remove
  C:3BD0H         PUBLIC        _list_head
  C:2BB2H         PUBLIC        _list_insert
  C:2905H         PUBLIC        _list_add
  C:22FAH         PUBLIC        _list_chop
  C:2F52H         PUBLIC        _list_tail
BL51 BANKED LINKER/LOCATER V6.22                                                      06/26/2021  00:39:09  PAGE 49


  C:3853H         PUBLIC        _list_init
  C:3761H         PUBLIC        _list_copy
  C:2E63H         PUBLIC        _list_push
  C:2FF6H         PUBLIC        _list_pop
  C:377EH         PUBLIC        _list_item_next
  C:31C2H         SYMBOL        Com0030
  C:31C2H         SYMBOL        L?0049
  C:31C2H         SYMBOL        L?0050
  C:31C5H         SYMBOL        L?0051
  C:31CEH         SYMBOL        L?0052
  C:31D4H         SYMBOL        L?0053
  C:31D5H         SYMBOL        L?0054
  C:31DDH         SYMBOL        L?0055
  C:31DDH         SYMBOL        L?0056
  C:31DEH         SYMBOL        L?0057
  C:31E6H         SYMBOL        L?0058
  C:31E6H         SYMBOL        L?0059
  C:31EDH         SYMBOL        L?0060
  C:31EDH         SYMBOL        L?0061
  -------         PROC          COM0030
  -------         ENDPROC       COM0030
  -------         PROC          _LIST_INIT
  X:017BH         SYMBOL        list
  C:3853H         LINE#         66
  C:3859H         LINE#         67
  C:3859H         LINE#         68
  C:386BH         LINE#         69
  -------         ENDPROC       _LIST_INIT
  -------         PROC          _LIST_HEAD
  D:0001H         SYMBOL        list
  C:3BD0H         LINE#         83
  C:3BD0H         LINE#         84
  C:3BD0H         LINE#         85
  C:3BD3H         LINE#         86
  -------         ENDPROC       _LIST_HEAD
  -------         PROC          _LIST_COPY
  X:02DDH         SYMBOL        dest
  X:02E0H         SYMBOL        src
  C:3761H         LINE#         101
  C:3767H         LINE#         102
  C:3767H         LINE#         103
  C:377DH         LINE#         104
  -------         ENDPROC       _LIST_COPY
  -------         PROC          _LIST_TAIL
  X:02E3H         SYMBOL        list
  -------         DO            
  X:02E6H         SYMBOL        l
  -------         ENDDO         
  C:2F52H         LINE#         118
  C:2F58H         LINE#         119
  C:2F58H         LINE#         122
  C:2F5FH         LINE#         123
  C:2F63H         LINE#         124
  C:2F63H         LINE#         126
  C:2F83H         LINE#         128
  C:2F89H         LINE#         129
  -------         ENDPROC       _LIST_TAIL
BL51 BANKED LINKER/LOCATER V6.22                                                      06/26/2021  00:39:09  PAGE 50


  -------         PROC          _LIST_ADD
  X:0294H         SYMBOL        list
  X:0297H         SYMBOL        item
  -------         DO            
  X:029AH         SYMBOL        l
  -------         ENDDO         
  C:2905H         LINE#         143
  C:290BH         LINE#         144
  C:290BH         LINE#         148
  C:2920H         LINE#         150
  C:2932H         LINE#         152
  C:2941H         LINE#         154
  C:2949H         LINE#         155
  C:2955H         LINE#         156
  C:2957H         LINE#         157
  C:2967H         LINE#         158
  C:2967H         LINE#         159
  -------         ENDPROC       _LIST_ADD
  -------         PROC          _LIST_PUSH
  X:02E9H         SYMBOL        list
  X:02ECH         SYMBOL        item
  C:2E63H         LINE#         165
  C:2E69H         LINE#         166
  C:2E69H         LINE#         170
  C:2E79H         LINE#         172
  C:2E8EH         LINE#         173
  C:2EA0H         LINE#         174
  -------         ENDPROC       _LIST_PUSH
  -------         PROC          _LIST_CHOP
  X:029DH         SYMBOL        list
  -------         DO            
  X:02A0H         SYMBOL        l
  X:02A3H         SYMBOL        r
  -------         ENDDO         
  C:22FAH         LINE#         186
  C:2300H         LINE#         187
  C:2300H         LINE#         190
  C:2307H         LINE#         191
  C:230BH         LINE#         192
  C:230BH         LINE#         193
  C:231BH         LINE#         194
  C:2324H         LINE#         195
  C:2336H         LINE#         196
  C:233BH         LINE#         197
  C:233BH         LINE#         199
  C:235BH         LINE#         201
  C:236AH         LINE#         202
  C:237CH         LINE#         204
  C:2382H         LINE#         205
  -------         ENDPROC       _LIST_CHOP
  -------         PROC          _LIST_POP
  X:02EFH         SYMBOL        list
  -------         DO            
  X:02F2H         SYMBOL        l
  -------         ENDDO         
  C:2FF6H         LINE#         218
  C:2FFCH         LINE#         219
BL51 BANKED LINKER/LOCATER V6.22                                                      06/26/2021  00:39:09  PAGE 51


  C:2FFCH         LINE#         221
  C:3005H         LINE#         222
  C:3012H         LINE#         223
  C:3024H         LINE#         224
  C:3024H         LINE#         226
  C:302AH         LINE#         227
  -------         ENDPROC       _LIST_POP
  -------         PROC          _LIST_REMOVE
  X:0189H         SYMBOL        list
  X:018CH         SYMBOL        item
  -------         DO            
  X:018FH         SYMBOL        l
  X:0192H         SYMBOL        r
  -------         ENDDO         
  C:1B6AH         LINE#         240
  C:1B70H         LINE#         241
  C:1B70H         LINE#         244
  C:1B7AH         LINE#         246
  C:1B7AH         LINE#         248
  C:1B83H         LINE#         249
  C:1B99H         LINE#         250
  C:1BBCH         LINE#         251
  C:1BC7H         LINE#         253
  C:1BD6H         LINE#         254
  C:1BD8H         LINE#         256
  C:1BEDH         LINE#         257
  C:1BEDH         LINE#         258
  C:1C00H         LINE#         260
  C:1C00H         LINE#         261
  C:1C0BH         LINE#         262
  C:1C20H         LINE#         263
  -------         ENDPROC       _LIST_REMOVE
  -------         PROC          _LIST_LENGTH
  D:0001H         SYMBOL        list
  -------         DO            
  D:0001H         SYMBOL        l
  D:0006H         SYMBOL        n
  -------         ENDDO         
  C:3962H         LINE#         275
  C:3962H         LINE#         276
  C:3962H         LINE#         278
  C:3965H         LINE#         280
  C:396BH         LINE#         281
  C:3970H         LINE#         282
  C:3975H         LINE#         284
  C:3975H         LINE#         285
  -------         ENDPROC       _LIST_LENGTH
  -------         PROC          _LIST_INSERT
  X:02A6H         SYMBOL        list
  X:02A9H         SYMBOL        previtem
  X:02ACH         SYMBOL        newitem
  C:2BB2H         LINE#         303
  C:2BB8H         LINE#         304
  C:2BB8H         LINE#         305
  C:2BBEH         LINE#         306
  C:2BD1H         LINE#         307
  C:2BD1H         LINE#         309
BL51 BANKED LINKER/LOCATER V6.22                                                      06/26/2021  00:39:09  PAGE 52


  C:2BE9H         LINE#         310
  C:2BFEH         LINE#         311
  C:2BFEH         LINE#         312
  -------         ENDPROC       _LIST_INSERT
  -------         PROC          _LIST_ITEM_NEXT
  X:0319H         SYMBOL        item
  C:377EH         LINE#         325
  C:3784H         LINE#         326
  C:3784H         LINE#         327
  C:379AH         LINE#         328
  -------         ENDPROC       _LIST_ITEM_NEXT
  -------         ENDMOD        LIST

  -------         MODULE        CONTIKI_MAIN
  C:0000H         SYMBOL        _ICE_DUMMY_
  D:0090H         PUBLIC        P1
  D:00A0H         PUBLIC        P2
  D:00C0H         PUBLIC        XICON
  D:00B0H         PUBLIC        P3
  D:00A8H         PUBLIC        IE
  D:00B8H         PUBLIC        IP
  C:276DH         SYMBOL        _process_thread_holdlive
  C:1CD6H         PUBLIC        main
  D:0098H         PUBLIC        SCON
  D:0088H         PUBLIC        TCON
  X:0117H         PUBLIC        led
  X:0121H         PUBLIC        dog
  X:012BH         PUBLIC        lcd_update1
  X:012CH         PUBLIC        lcd_update2
  X:012DH         PUBLIC        holdlive
  D:00C8H         PUBLIC        T2CON
  C:2DA7H         PUBLIC        hardware_init
  C:20B3H         SYMBOL        _process_thread_led
  D:00D0H         PUBLIC        PSW
  C:2700H         SYMBOL        _process_thread_dog
  C:2EA1H         SYMBOL        Com0031
  C:2EA1H         SYMBOL        L?0050
  C:2EA1H         SYMBOL        L?0051
  C:2EA6H         SYMBOL        L?0052
  C:2EA9H         SYMBOL        L?0053
  C:2EB2H         SYMBOL        L?0057
  C:2EB2H         SYMBOL        L?0058
  C:2EBEH         SYMBOL        L?0060
  C:2EBEH         SYMBOL        L?0061
  C:2EC7H         SYMBOL        L?0062
  C:2EC7H         SYMBOL        L?0063
  C:2ED0H         SYMBOL        L?0065
  C:2ED0H         SYMBOL        L?0066
  C:2ED7H         SYMBOL        L?0067
  C:2ED7H         SYMBOL        L?0068
  -------         PROC          COM0031
  -------         ENDPROC       COM0031
  -------         PROC          HARDWARE_INIT
  C:2DA7H         LINE#         20
  C:2DA7H         LINE#         22
  C:2DACH         LINE#         23
  C:2DAFH         LINE#         24
BL51 BANKED LINKER/LOCATER V6.22                                                      06/26/2021  00:39:09  PAGE 53


  C:2DB2H         LINE#         25
  C:2DB5H         LINE#         26
  C:2DB8H         LINE#         27
  C:2DBFH         LINE#         28
  C:2DC4H         LINE#         29
  C:2DC9H         LINE#         31
  C:2DD3H         LINE#         32
  C:2DDDH         LINE#         33
  -------         ENDPROC       HARDWARE_INIT
  C:212EH         SYMBOL        L?0056
  C:213CH         SYMBOL        L?0064
  -------         PROC          _PROCESS_THREAD_LED
  X:017BH         SYMBOL        process_pt
  X:017EH         SYMBOL        ev
  X:017FH         SYMBOL        dataa
  -------         DO            
  X:00EDH         SYMBOL        et
  -------         DO            
  X:0182H         SYMBOL        PT_YIELD_FLAG
  -------         ENDDO         
  -------         ENDDO         
  C:20B3H         LINE#         36
  C:20B9H         LINE#         37
  C:20B9H         LINE#         38
  C:20B9H         LINE#         39
  C:20D4H         LINE#         41
  C:20E5H         LINE#         42
  C:20E5H         LINE#         43
  C:20E5H         LINE#         45
  C:20FDH         LINE#         47
  C:20FFH         LINE#         49
  C:2105H         LINE#         50
  C:211DH         LINE#         52
  C:211FH         LINE#         53
  C:2125H         LINE#         54
  C:2127H         LINE#         55
  C:212DH         LINE#         56
  -------         ENDPROC       _PROCESS_THREAD_LED
  -------         PROC          _PROCESS_THREAD_DOG
  X:017BH         SYMBOL        process_pt
  X:017EH         SYMBOL        ev
  X:017FH         SYMBOL        dataa
  -------         DO            
  X:00FBH         SYMBOL        et
  -------         DO            
  X:0182H         SYMBOL        PT_YIELD_FLAG
  -------         ENDDO         
  -------         ENDDO         
  C:2700H         LINE#         58
  C:2706H         LINE#         59
  C:2706H         LINE#         60
  C:2706H         LINE#         61
  C:2720H         LINE#         63
  C:272EH         LINE#         64
  C:272EH         LINE#         65
  C:272EH         LINE#         67
  C:2753H         LINE#         68
BL51 BANKED LINKER/LOCATER V6.22                                                      06/26/2021  00:39:09  PAGE 54


  C:2756H         LINE#         69
  C:275CH         LINE#         70
  C:275EH         LINE#         71
  C:276CH         LINE#         72
  -------         ENDPROC       _PROCESS_THREAD_DOG
  -------         PROC          _PROCESS_THREAD_HOLDLIVE
  X:017BH         SYMBOL        process_pt
  X:017EH         SYMBOL        ev
  X:017FH         SYMBOL        dataa
  -------         DO            
  X:0109H         SYMBOL        et
  -------         DO            
  X:0182H         SYMBOL        PT_YIELD_FLAG
  -------         ENDDO         
  -------         ENDDO         
  C:276DH         LINE#         74
  C:2773H         LINE#         75
  C:2773H         LINE#         76
  C:2773H         LINE#         77
  C:278DH         LINE#         79
  C:279BH         LINE#         80
  C:279BH         LINE#         81
  C:279BH         LINE#         82
  C:27C0H         LINE#         83
  C:27C6H         LINE#         84
  C:27C8H         LINE#         85
  C:27D6H         LINE#         86
  -------         ENDPROC       _PROCESS_THREAD_HOLDLIVE
  C:1D4BH         SYMBOL        L?0048
  C:1D5CH         SYMBOL        L?0054
  C:1D6BH         SYMBOL        L?0055
  C:1D7AH         SYMBOL        L?0059
  -------         PROC          MAIN
  C:1CD6H         LINE#         90
  C:1CD6H         LINE#         91
  C:1CD6H         LINE#         92
  C:1CD9H         LINE#         93
  C:1CDCH         LINE#         94
  C:1CDFH         LINE#         95
  C:1CE2H         LINE#         96
  C:1CE5H         LINE#         97
  C:1CEDH         LINE#         98
  C:1CF5H         LINE#         100
  C:1D02H         LINE#         101
  C:1D09H         LINE#         102
  C:1D10H         LINE#         103
  C:1D17H         LINE#         104
  C:1D1EH         LINE#         105
  C:1D25H         LINE#         106
  C:1D2CH         LINE#         107
  C:1D33H         LINE#         108
  C:1D3FH         LINE#         109
  C:1D3FH         LINE#         110
  C:1D49H         LINE#         111
  C:1D4BH         LINE#         112
  C:1D4BH         LINE#         113
  -------         ENDPROC       MAIN
BL51 BANKED LINKER/LOCATER V6.22                                                      06/26/2021  00:39:09  PAGE 55


  -------         ENDMOD        CONTIKI_MAIN

  -------         MODULE        SPIN_1602
  C:0000H         SYMBOL        _ICE_DUMMY_
  D:0080H         PUBLIC        P0
  D:0090H         PUBLIC        P1
  D:00A0H         PUBLIC        P2
  D:00C0H         PUBLIC        XICON
  D:00B0H         PUBLIC        P3
  D:00A8H         PUBLIC        IE
  C:39B0H         PUBLIC        _wdata
  C:399DH         PUBLIC        _wcode
  C:32E6H         PUBLIC        _put_line1
  C:3315H         PUBLIC        _put_line2
  D:00B8H         PUBLIC        IP
  B:0080H.7       PUBLIC        BusyFlag
  X:0281H         PUBLIC        lcd
  D:0098H         PUBLIC        SCON
  D:0088H         PUBLIC        TCON
  C:3A63H         PUBLIC        checkbusy
  B:00A0H.7       PUBLIC        e
  B:00A0H.6       PUBLIC        rs
  D:00C8H         PUBLIC        T2CON
  B:00A0H.5       PUBLIC        rw
  C:3976H         PUBLIC        InitLCD
  C:268EH         SYMBOL        _process_thread_lcd
  D:00D0H         PUBLIC        PSW
  C:3286H         SYMBOL        Com001C
  C:3286H         SYMBOL        L?0029
  C:328BH         SYMBOL        L?0030
  C:328EH         SYMBOL        L?0031
  C:3297H         SYMBOL        L?0032
  C:3297H         SYMBOL        L?0033
  C:32A0H         SYMBOL        L?0034
  C:32ACH         SYMBOL        L?0035
  -------         PROC          COM001C
  -------         ENDPROC       COM001C
  -------         PROC          CHECKBUSY
  C:3A63H         LINE#         26
  C:3A63H         LINE#         27
  C:3A63H         LINE#         28
  C:3A66H         LINE#         29
  C:3A68H         LINE#         30
  C:3A6AH         LINE#         31
  C:3A6CH         LINE#         32
  C:3A6EH         LINE#         33
  C:3A71H         LINE#         34
  C:3A73H         LINE#         35
  -------         ENDPROC       CHECKBUSY
  -------         PROC          _WCODE
  D:0007H         SYMBOL        t
  C:399DH         LINE#         39
  C:399DH         LINE#         40
  C:399DH         LINE#         41
  C:39A0H         LINE#         42
  C:39A2H         LINE#         43
  C:39A4H         LINE#         44
BL51 BANKED LINKER/LOCATER V6.22                                                      06/26/2021  00:39:09  PAGE 56


  C:39A6H         LINE#         45
  C:39A8H         LINE#         46
  C:39ADH         LINE#         47
  C:39AFH         LINE#         48
  -------         ENDPROC       _WCODE
  -------         PROC          _WDATA
  D:0007H         SYMBOL        t
  C:39B0H         LINE#         52
  C:39B0H         LINE#         53
  C:39B0H         LINE#         54
  C:39B3H         LINE#         55
  C:39B5H         LINE#         56
  C:39B7H         LINE#         57
  C:39B9H         LINE#         58
  C:39BBH         LINE#         59
  C:39C0H         LINE#         60
  C:39C2H         LINE#         61
  -------         ENDPROC       _WDATA
  -------         PROC          _PUT_LINE1
  X:0183H         SYMBOL        line1
  -------         DO            
  X:0186H         SYMBOL        i
  -------         ENDDO         
  C:32E6H         LINE#         65
  C:32ECH         LINE#         66
  C:32ECH         LINE#         68
  C:32F1H         LINE#         69
  C:3300H         LINE#         70
  C:3300H         LINE#         71
  C:330CH         LINE#         72
  C:3314H         LINE#         73
  -------         ENDPROC       _PUT_LINE1
  -------         PROC          _PUT_LINE2
  X:0183H         SYMBOL        line2
  -------         DO            
  X:0186H         SYMBOL        i
  -------         ENDDO         
  C:3315H         LINE#         77
  C:331BH         LINE#         78
  C:331BH         LINE#         80
  C:3320H         LINE#         81
  C:332FH         LINE#         82
  C:332FH         LINE#         83
  C:333BH         LINE#         84
  C:3343H         LINE#         85
  -------         ENDPROC       _PUT_LINE2
  -------         PROC          INITLCD
  C:3976H         LINE#         89
  C:3976H         LINE#         90
  C:397BH         LINE#         91
  C:3980H         LINE#         92
  C:3985H         LINE#         93
  -------         ENDPROC       INITLCD
  -------         PROC          _PROCESS_THREAD_LCD
  X:017BH         SYMBOL        process_pt
  X:017EH         SYMBOL        ev
  X:017FH         SYMBOL        dataa
BL51 BANKED LINKER/LOCATER V6.22                                                      06/26/2021  00:39:09  PAGE 57


  -------         DO            
  X:0182H         SYMBOL        PT_YIELD_FLAG
  -------         ENDDO         
  C:268EH         LINE#         97
  C:2697H         LINE#         98
  C:2697H         LINE#         99
  C:26B3H         LINE#         100
  C:26B6H         LINE#         101
  C:26B6H         LINE#         102
  C:26B6H         LINE#         104
  C:26C9H         LINE#         105
  C:26D5H         LINE#         106
  C:26DBH         LINE#         107
  C:26DBH         LINE#         108
  C:26E7H         LINE#         109
  C:26EDH         LINE#         110
  C:26EDH         LINE#         111
  C:26F2H         LINE#         112
  C:26F4H         LINE#         113
  C:26FFH         LINE#         114
  -------         ENDPROC       _PROCESS_THREAD_LCD
  -------         ENDMOD        SPIN_1602

  -------         MODULE        I2C
  C:0000H         SYMBOL        _ICE_DUMMY_
  D:0090H         PUBLIC        P1
  D:00A0H         PUBLIC        P2
  D:00C0H         PUBLIC        XICON
  D:00B0H         PUBLIC        P3
  D:00A8H         PUBLIC        IE
  D:00B8H         PUBLIC        IP
  C:35DEH         PUBLIC        I2C_Read
  C:339CH         PUBLIC        _I2C_Write
  C:34DFH         PUBLIC        I2C_Start
  C:2383H         PUBLIC        _I2C_Gets
  D:0098H         PUBLIC        SCON
  C:39C3H         PUBLIC        I2C_Init
  D:0088H         PUBLIC        TCON
  C:33C7H         PUBLIC        I2C_Stop
  C:259DH         PUBLIC        _I2C_Puts
  C:3623H         PUBLIC        I2C_GetAck
  B:00A0H.0       PUBLIC        SDA
  B:00A0H.1       PUBLIC        SCL
  X:031DH         PUBLIC        I2C_Delay_t
  D:00C8H         PUBLIC        T2CON
  C:36CAH         PUBLIC        _I2C_PutAck
  D:00D0H         PUBLIC        PSW
  C:305FH         SYMBOL        Com005E
  C:305FH         SYMBOL        L?0095
  C:305FH         SYMBOL        L?0096
  C:3061H         SYMBOL        L?0097
  C:3068H         SYMBOL        L?0098
  C:3068H         SYMBOL        L?0099
  C:306FH         SYMBOL        L?0100
  C:3072H         SYMBOL        L?0101
  C:307BH         SYMBOL        L?0102
  C:3089H         SYMBOL        L?0103
BL51 BANKED LINKER/LOCATER V6.22                                                      06/26/2021  00:39:09  PAGE 58


  -------         PROC          COM005E
  -------         ENDPROC       COM005E
  -------         PROC          I2C_INIT
  C:39C3H         LINE#         31
  C:39C3H         LINE#         32
  C:39C3H         LINE#         33
  C:39C3H         LINE#         34
  C:39CBH         LINE#         35
  C:39CDH         LINE#         36
  C:39D5H         LINE#         37
  -------         ENDPROC       I2C_INIT
  -------         PROC          I2C_START
  C:34DFH         LINE#         48
  C:34DFH         LINE#         49
  C:34DFH         LINE#         50
  C:34E1H         LINE#         51
  C:34E9H         LINE#         52
  C:34E9H         LINE#         53
  C:34F1H         LINE#         54
  C:34F3H         LINE#         55
  C:34FBH         LINE#         56
  C:34FDH         LINE#         57
  C:3505H         LINE#         58
  -------         ENDPROC       I2C_START
  -------         PROC          _I2C_WRITE
  D:0007H         SYMBOL        dat
  -------         DO            
  D:0006H         SYMBOL        t
  -------         ENDDO         
  C:339CH         LINE#         66
  C:339CH         LINE#         67
  C:339CH         LINE#         68
  C:339EH         LINE#         70
  C:339EH         LINE#         71
  C:33AEH         LINE#         72
  C:33B2H         LINE#         73
  C:33B2H         LINE#         74
  C:33BAH         LINE#         75
  C:33BCH         LINE#         76
  C:33C4H         LINE#         77
  C:33C6H         LINE#         78
  -------         ENDPROC       _I2C_WRITE
  -------         PROC          I2C_READ
  -------         DO            
  D:0007H         SYMBOL        dat
  D:0006H         SYMBOL        t
  -------         ENDDO         
  C:35DEH         LINE#         85
  C:35DEH         LINE#         86
  C:35DEH         LINE#         88
  C:35E0H         LINE#         89
  C:35E2H         LINE#         91
  C:35E2H         LINE#         92
  C:35E2H         LINE#         93
  C:35EAH         LINE#         94
  C:35EEH         LINE#         95
  C:35F4H         LINE#         96
BL51 BANKED LINKER/LOCATER V6.22                                                      06/26/2021  00:39:09  PAGE 59


  C:35F6H         LINE#         97
  C:35FEH         LINE#         98
  C:3600H         LINE#         99
  C:3600H         LINE#         100
  -------         ENDPROC       I2C_READ
  -------         PROC          I2C_GETACK
  -------         DO            
  D:0007H         SYMBOL        ack
  -------         ENDDO         
  C:3623H         LINE#         112
  C:3623H         LINE#         113
  C:3623H         LINE#         116
  C:3625H         LINE#         117
  C:362DH         LINE#         118
  C:362DH         LINE#         119
  C:3635H         LINE#         121
  C:363AH         LINE#         122
  C:363CH         LINE#         123
  C:3644H         LINE#         124
  C:3644H         LINE#         125
  -------         ENDPROC       I2C_GETACK
  -------         PROC          _I2C_PUTACK
  D:0007H         SYMBOL        ack
  C:36CAH         LINE#         137
  C:36CAH         LINE#         138
  C:36CAH         LINE#         140
  C:36CFH         LINE#         141
  C:36D7H         LINE#         142
  C:36D7H         LINE#         143
  C:36DFH         LINE#         144
  C:36E1H         LINE#         145
  C:36E9H         LINE#         146
  -------         ENDPROC       _I2C_PUTACK
  -------         PROC          I2C_STOP
  -------         DO            
  D:0006H         SYMBOL        t
  -------         ENDDO         
  C:33C7H         LINE#         156
  C:33C7H         LINE#         157
  C:33C7H         LINE#         158
  C:33CBH         LINE#         160
  C:33CDH         LINE#         161
  C:33D5H         LINE#         162
  C:33D5H         LINE#         163
  C:33DDH         LINE#         164
  C:33DFH         LINE#         165
  C:33E7H         LINE#         166
  C:33F0H         LINE#         167
  -------         ENDPROC       I2C_STOP
  -------         PROC          _I2C_PUTS
  D:0007H         SYMBOL        SlaveAddr
  D:0004H         SYMBOL        SubAddr
  D:0003H         SYMBOL        SubMod
  X:0188H         SYMBOL        dat
  X:018BH         SYMBOL        Size
  -------         DO            
  D:0004H         SYMBOL        i
BL51 BANKED LINKER/LOCATER V6.22                                                      06/26/2021  00:39:09  PAGE 60


  X:018DH         SYMBOL        a
  -------         ENDDO         
  C:259DH         LINE#         185
  C:259DH         LINE#         193
  C:259DH         LINE#         198
  C:25A9H         LINE#         200
  C:25B0H         LINE#         202
  C:25B8H         LINE#         204
  C:25C0H         LINE#         205
  C:25C0H         LINE#         206
  C:25C0H         LINE#         207
  C:25C0H         LINE#         208
  C:25C0H         LINE#         209
  C:25C5H         LINE#         210
  C:25C7H         LINE#         211
  C:25C7H         LINE#         212
  C:25CCH         LINE#         213
  C:25CFH         LINE#         214
  C:25CFH         LINE#         215
  C:25CFH         LINE#         216
  C:25CFH         LINE#         217
  C:25CFH         LINE#         219
  C:25D0H         LINE#         220
  C:25D3H         LINE#         221
  C:25DAH         LINE#         222
  C:25DAH         LINE#         223
  C:25E2H         LINE#         224
  C:25E7H         LINE#         225
  C:25E7H         LINE#         226
  C:25EAH         LINE#         227
  C:25EDH         LINE#         228
  C:25EDH         LINE#         229
  C:25F0H         LINE#         232
  C:25F0H         LINE#         233
  C:25F9H         LINE#         234
  C:25FEH         LINE#         235
  C:2606H         LINE#         237
  C:2609H         LINE#         238
  C:2613H         LINE#         239
  C:2613H         LINE#         240
  C:2615H         LINE#         241
  C:2615H         LINE#         243
  C:2615H         LINE#         244
  C:2617H         LINE#         245
  C:2617H         LINE#         246
  -------         ENDPROC       _I2C_PUTS
  -------         PROC          _I2C_GETS
  D:0007H         SYMBOL        SlaveAddr
  D:0004H         SYMBOL        SubAddr
  D:0003H         SYMBOL        SubMod
  X:0188H         SYMBOL        dat
  X:018BH         SYMBOL        Size
  -------         DO            
  D:0004H         SYMBOL        i
  X:018DH         SYMBOL        a
  -------         ENDDO         
  C:2383H         LINE#         264
BL51 BANKED LINKER/LOCATER V6.22                                                      06/26/2021  00:39:09  PAGE 61


  C:2383H         LINE#         272
  C:2383H         LINE#         277
  C:238FH         LINE#         279
  C:2396H         LINE#         281
  C:239EH         LINE#         283
  C:23A1H         LINE#         284
  C:23A1H         LINE#         286
  C:23A4H         LINE#         287
  C:23A4H         LINE#         288
  C:23A9H         LINE#         289
  C:23ABH         LINE#         291
  C:23ABH         LINE#         292
  C:23B0H         LINE#         293
  C:23B3H         LINE#         294
  C:23B3H         LINE#         296
  C:23B4H         LINE#         297
  C:23B7H         LINE#         298
  C:23BEH         LINE#         299
  C:23BEH         LINE#         300
  C:23C6H         LINE#         301
  C:23CBH         LINE#         302
  C:23CBH         LINE#         303
  C:23CBH         LINE#         304
  C:23CDH         LINE#         305
  C:23CDH         LINE#         306
  C:23D0H         LINE#         307
  C:23D0H         LINE#         310
  C:23D3H         LINE#         312
  C:23D8H         LINE#         313
  C:23DDH         LINE#         314
  C:23DDH         LINE#         315
  C:23E0H         LINE#         316
  C:23E3H         LINE#         317
  C:23E3H         LINE#         319
  C:23E3H         LINE#         320
  C:23E3H         LINE#         321
  C:23F0H         LINE#         322
  C:23F8H         LINE#         323
  C:23F8H         LINE#         324
  C:23FDH         LINE#         325
  C:23FFH         LINE#         326
  C:23FFH         LINE#         327
  C:2404H         LINE#         328
  C:2406H         LINE#         330
  C:2409H         LINE#         331
  C:240BH         LINE#         332
  -------         ENDPROC       _I2C_GETS
  -------         ENDMOD        I2C

  -------         MODULE        SPIN_AT24C02
  C:0000H         SYMBOL        _ICE_DUMMY_
  D:0090H         PUBLIC        P1
  D:00A0H         PUBLIC        P2
  X:01C0H         PUBLIC        at24c02
  D:00C0H         PUBLIC        XICON
  D:00B0H         PUBLIC        P3
  D:00A8H         PUBLIC        IE
BL51 BANKED LINKER/LOCATER V6.22                                                      06/26/2021  00:39:09  PAGE 62


  D:00B8H         PUBLIC        IP
  D:0098H         PUBLIC        SCON
  D:0088H         PUBLIC        TCON
  C:118FH         SYMBOL        _process_thread_at24c02
  C:3AC4H         PUBLIC        str
  C:3645H         PUBLIC        _At24c02Read
  D:00C8H         PUBLIC        T2CON
  C:37B7H         PUBLIC        _At24c02Write
  D:00D0H         PUBLIC        PSW
  C:30F9H         SYMBOL        Com0025
  C:30F9H         SYMBOL        L?0038
  C:30F9H         SYMBOL        L?0039
  C:30FEH         SYMBOL        L?0040
  C:310AH         SYMBOL        L?0041
  C:310AH         SYMBOL        L?0042
  C:3111H         SYMBOL        L?0043
  C:3120H         SYMBOL        L?0044
  -------         PROC          COM0025
  -------         ENDPROC       COM0025
  -------         PROC          _AT24C02WRITE
  D:0007H         SYMBOL        addr
  X:0183H         SYMBOL        dat
  C:37B7H         LINE#         14
  C:37BCH         LINE#         15
  C:37BCH         LINE#         16
  C:37D2H         LINE#         17
  -------         ENDPROC       _AT24C02WRITE
  -------         PROC          _AT24C02READ
  D:0007H         SYMBOL        addr
  -------         DO            
  X:0183H         SYMBOL        num
  -------         ENDDO         
  C:3645H         LINE#         25
  C:3645H         LINE#         26
  C:3645H         LINE#         28
  C:3664H         LINE#         29
  C:3666H         LINE#         30
  -------         ENDPROC       _AT24C02READ
  -------         PROC          _PROCESS_THREAD_AT24C02
  X:017BH         SYMBOL        process_pt
  X:017EH         SYMBOL        ev
  X:017FH         SYMBOL        dataa
  -------         DO            
  X:01A0H         SYMBOL        slen
  X:01A1H         SYMBOL        index
  X:01A2H         SYMBOL        recv
  X:01B2H         SYMBOL        et
  -------         DO            
  X:0182H         SYMBOL        PT_YIELD_FLAG
  -------         ENDDO         
  -------         ENDDO         
  C:118FH         LINE#         33
  C:119DH         LINE#         34
  C:119DH         LINE#         35
  C:119DH         LINE#         39
  C:11CAH         LINE#         40
  C:11CDH         LINE#         41
BL51 BANKED LINKER/LOCATER V6.22                                                      06/26/2021  00:39:09  PAGE 63


  C:11DBH         LINE#         42
  C:11DBH         LINE#         43
  C:11DBH         LINE#         44
  C:11F8H         LINE#         45
  C:1208H         LINE#         46
  C:1208H         LINE#         47
  C:120DH         LINE#         48
  C:1213H         LINE#         49
  C:1215H         LINE#         50
  C:121BH         LINE#         51
  C:121BH         LINE#         52
  C:121BH         LINE#         53
  C:1221H         LINE#         54
  C:123EH         LINE#         55
  C:1256H         LINE#         56
  C:1264H         LINE#         57
  C:1264H         LINE#         58
  C:1269H         LINE#         60
  C:1285H         LINE#         61
  C:1293H         LINE#         62
  C:1293H         LINE#         63
  C:12B0H         LINE#         64
  C:12B6H         LINE#         65
  C:12B8H         LINE#         66
  C:12C3H         LINE#         67
  -------         ENDPROC       _PROCESS_THREAD_AT24C02
  -------         ENDMOD        SPIN_AT24C02

  -------         MODULE        SPIN_PWM
  C:0000H         SYMBOL        _ICE_DUMMY_
  D:0090H         PUBLIC        P1
  D:00A0H         PUBLIC        P2
  D:00C0H         PUBLIC        XICON
  D:00B0H         PUBLIC        P3
  D:00A8H         PUBLIC        IE
  D:00B8H         PUBLIC        IP
  X:01DAH         PUBLIC        revert_value
  C:1E35H         SYMBOL        _process_thread_pwm_led
  D:0098H         PUBLIC        SCON
  D:0088H         PUBLIC        TCON
  B:00A0H.3       PUBLIC        pwm
  C:37D3H         PUBLIC        pwm_start
  D:00C8H         PUBLIC        T2CON
  X:01DBH         PUBLIC        pwm_led
  D:00D0H         PUBLIC        PSW
  C:389CH         SYMBOL        Com0016
  C:389CH         SYMBOL        L?0023
  C:38A1H         SYMBOL        L?0024
  C:38ADH         SYMBOL        L?0025
  C:38ADH         SYMBOL        L?0026
  -------         PROC          COM0016
  -------         ENDPROC       COM0016
  -------         PROC          PWM_START
  C:37D3H         LINE#         10
  C:37D3H         LINE#         11
  C:37EBH         LINE#         12
  C:37EDH         LINE#         13
BL51 BANKED LINKER/LOCATER V6.22                                                      06/26/2021  00:39:09  PAGE 64


  -------         ENDPROC       PWM_START
  -------         PROC          _PROCESS_THREAD_PWM_LED
  X:017BH         SYMBOL        process_pt
  X:017EH         SYMBOL        ev
  X:017FH         SYMBOL        dataa
  -------         DO            
  X:01CAH         SYMBOL        rate
  X:01CBH         SYMBOL        dir
  X:01CCH         SYMBOL        et
  -------         DO            
  X:0182H         SYMBOL        PT_YIELD_FLAG
  -------         ENDDO         
  -------         ENDDO         
  C:1E35H         LINE#         16
  C:1E43H         LINE#         17
  C:1E43H         LINE#         18
  C:1E43H         LINE#         21
  C:1E5FH         LINE#         23
  C:1E6DH         LINE#         24
  C:1E6DH         LINE#         25
  C:1E6DH         LINE#         27
  C:1E8AH         LINE#         28
  C:1E94H         LINE#         29
  C:1E99H         LINE#         31
  C:1E9CH         LINE#         32
  C:1EB7H         LINE#         33
  C:1EC3H         LINE#         34
  C:1EC5H         LINE#         35
  C:1ECBH         LINE#         36
  C:1ECDH         LINE#         37
  C:1ED8H         LINE#         38
  -------         ENDPROC       _PROCESS_THREAD_PWM_LED
  -------         ENDMOD        SPIN_PWM

  -------         MODULE        SPIN_18B20
  C:0000H         SYMBOL        _ICE_DUMMY_
  D:0090H         PUBLIC        P1
  D:00C0H         PUBLIC        XICON
  D:00B0H         PUBLIC        P3
  X:01F3H         PUBLIC        _18b20
  D:00A8H         PUBLIC        IE
  B:00B0H.7       PUBLIC        DQ
  C:1ED9H         PUBLIC        _float_2_ascii
  D:00B8H         PUBLIC        IP
  D:0098H         PUBLIC        SCON
  C:2DE6H         PUBLIC        read_byte
  D:0088H         PUBLIC        TCON
  C:0026H         SYMBOL        _?ix1000
  C:32B6H         PUBLIC        _write_byte
  C:3667H         PUBLIC        init_18b20
  C:16C1H         SYMBOL        _process_thread__18b20
  C:2AC6H         PUBLIC        get_temp
  D:00C8H         PUBLIC        T2CON
  D:00D0H         PUBLIC        PSW
  C:31F4H         SYMBOL        Com001C
  C:31F4H         SYMBOL        L?0029
  C:31F8H         SYMBOL        L?0030
BL51 BANKED LINKER/LOCATER V6.22                                                      06/26/2021  00:39:09  PAGE 65


  C:31FBH         SYMBOL        L?0031
  C:31FEH         SYMBOL        L?0032
  C:3207H         SYMBOL        L?0033
  C:320AH         SYMBOL        L?0034
  C:320DH         SYMBOL        L?0035
  C:3219H         SYMBOL        L?0036
  C:3219H         SYMBOL        L?0037
  C:321FH         SYMBOL        L?0038
  C:321FH         SYMBOL        L?0039
  -------         PROC          COM001C
  -------         ENDPROC       COM001C
  -------         PROC          INIT_18B20
  -------         DO            
  X:018DH         SYMBOL        flag
  -------         ENDDO         
  C:3667H         LINE#         19
  C:3667H         LINE#         20
  C:3667H         LINE#         22
  C:3669H         LINE#         23
  C:366EH         LINE#         24
  C:3670H         LINE#         25
  C:3675H         LINE#         26
  C:3677H         LINE#         27
  C:367CH         LINE#         28
  C:3684H         LINE#         29
  -------         ENDPROC       INIT_18B20
  -------         PROC          _WRITE_BYTE
  X:018DH         SYMBOL        t
  -------         DO            
  X:018EH         SYMBOL        i
  -------         ENDDO         
  C:32B6H         LINE#         34
  C:32BBH         LINE#         35
  C:32BBH         LINE#         37
  C:32BEH         LINE#         38
  C:32BEH         LINE#         39
  C:32C0H         LINE#         40
  C:32C5H         LINE#         41
  C:32CCH         LINE#         42
  C:32D1H         LINE#         43
  C:32D3H         LINE#         44
  C:32DBH         LINE#         45
  C:32E5H         LINE#         46
  -------         ENDPROC       _WRITE_BYTE
  -------         PROC          READ_BYTE
  -------         DO            
  X:018DH         SYMBOL        i
  X:018EH         SYMBOL        value
  -------         ENDDO         
  C:2DE6H         LINE#         50
  C:2DE6H         LINE#         51
  C:2DE6H         LINE#         52
  C:2DEBH         LINE#         53
  C:2DEFH         LINE#         54
  C:2DEFH         LINE#         55
  C:2DF6H         LINE#         56
  C:2DF8H         LINE#         57
BL51 BANKED LINKER/LOCATER V6.22                                                      06/26/2021  00:39:09  PAGE 66


  C:2DFDH         LINE#         58
  C:2DFFH         LINE#         59
  C:2E04H         LINE#         60
  C:2E0EH         LINE#         61
  C:2E13H         LINE#         62
  C:2E1FH         LINE#         63
  C:2E24H         LINE#         64
  -------         ENDPROC       READ_BYTE
  -------         PROC          _FLOAT_2_ASCII
  X:018CH         SYMBOL        dat
  X:0190H         SYMBOL        asc
  C:1ED9H         LINE#         68
  C:1EE7H         LINE#         69
  C:1EE7H         LINE#         70
  C:1EFFH         LINE#         71
  C:1F08H         LINE#         72
  C:1F10H         LINE#         73
  C:1F12H         LINE#         74
  C:1F12H         LINE#         75
  C:1F1DH         LINE#         76
  C:1F1DH         LINE#         77
  C:1F2DH         LINE#         79
  C:1F42H         LINE#         80
  C:1F4AH         LINE#         81
  C:1F68H         LINE#         82
  C:1F7CH         LINE#         83
  C:1F7CH         LINE#         84
  -------         ENDPROC       _FLOAT_2_ASCII
  -------         PROC          GET_TEMP
  -------         DO            
  D:0006H         SYMBOL        dat
  X:018CH         SYMBOL        wenl
  D:0007H         SYMBOL        wenh
  -------         ENDDO         
  C:2AC6H         LINE#         88
  C:2AC6H         LINE#         89
  C:2AC6H         LINE#         92
  C:2AC9H         LINE#         93
  C:2ACEH         LINE#         94
  C:2AD3H         LINE#         95
  C:2AD6H         LINE#         96
  C:2ADBH         LINE#         97
  C:2AE0H         LINE#         98
  C:2AE8H         LINE#         99
  C:2AEBH         LINE#         100
  C:2AF9H         LINE#         101
  C:2B15H         LINE#         102
  -------         ENDPROC       GET_TEMP
  -------         PROC          _PROCESS_THREAD__18B20
  X:017BH         SYMBOL        process_pt
  X:017EH         SYMBOL        ev
  X:017FH         SYMBOL        dataa
  -------         DO            
  X:01E5H         SYMBOL        et
  X:0182H         SYMBOL        cur_temp
  X:0186H         SYMBOL        asc
  -------         DO            
BL51 BANKED LINKER/LOCATER V6.22                                                      06/26/2021  00:39:09  PAGE 67


  X:018BH         SYMBOL        PT_YIELD_FLAG
  -------         ENDDO         
  -------         ENDDO         
  C:16C1H         LINE#         105
  C:16CFH         LINE#         106
  C:16CFH         LINE#         108
  C:16D9H         LINE#         109
  C:16ECH         LINE#         110
  C:170BH         LINE#         111
  C:170EH         LINE#         113
  C:171CH         LINE#         114
  C:171CH         LINE#         115
  C:171CH         LINE#         117
  C:1741H         LINE#         118
  C:174AH         LINE#         119
  C:1759H         LINE#         120
  C:1775H         LINE#         121
  C:177BH         LINE#         122
  C:177DH         LINE#         123
  C:1790H         LINE#         124
  -------         ENDPROC       _PROCESS_THREAD__18B20
  -------         ENDMOD        SPIN_18B20

  -------         MODULE        SPIN_DS1302
  C:0000H         SYMBOL        _ICE_DUMMY_
  D:0090H         PUBLIC        P1
  D:00C0H         PUBLIC        XICON
  D:00B0H         PUBLIC        P3
  C:1AAFH         PUBLIC        _ds1302_rtc_set_time
  D:00A8H         PUBLIC        IE
  C:3B95H         SYMBOL        ds1302_clock
  C:3370H         PUBLIC        _bin2bcd
  C:38CBH         PUBLIC        _bcd2bin
  D:00B8H         PUBLIC        IP
  X:0148H         PUBLIC        ds1302
  C:3BD8H         SYMBOL        ds1302_reset
  C:3B2DH         SYMBOL        ds1302_rxbit
  C:3A1EH         SYMBOL        _ds1302_txbit
  C:12C4H         PUBLIC        _time_2_ascii
  C:3BDCH         SYMBOL        ds1302_start
  D:0098H         PUBLIC        SCON
  D:0088H         PUBLIC        TCON
  X:0152H         SYMBOL        asc
  C:3BE0H         SYMBOL        ds1302_stop
  C:3AD4H         SYMBOL        _ds1302_readbyte
  C:185CH         PUBLIC        _ds1302_rtc_read_time
  C:1F7DH         SYMBOL        _process_thread_ds1302
  C:3506H         SYMBOL        _ds1302_sendbits
  C:38E2H         SYMBOL        _ds1302_writebyte
  C:29C3H         SYMBOL        ds1302_recvbits
  D:00C8H         PUBLIC        T2CON
  C:3BD4H         SYMBOL        ds1302_hw_init
  D:00D0H         PUBLIC        PSW
  X:0162H         PUBLIC        default_time
  C:21DBH         SYMBOL        Com002C
  C:21DBH         SYMBOL        L?0045
  C:21DCH         SYMBOL        L?0046
BL51 BANKED LINKER/LOCATER V6.22                                                      06/26/2021  00:39:09  PAGE 68


  C:21DFH         SYMBOL        L?0047
  C:21E2H         SYMBOL        L?0048
  C:21EAH         SYMBOL        L?0049
  C:21EDH         SYMBOL        L?0050
  C:21F0H         SYMBOL        L?0051
  C:21F9H         SYMBOL        L?0054
  C:21F9H         SYMBOL        L?0055
  C:21FAH         SYMBOL        L?0056
  C:2201H         SYMBOL        L?0057
  C:2201H         SYMBOL        L?0058
  C:2204H         SYMBOL        L?0059
  C:2206H         SYMBOL        L?0060
  C:220EH         SYMBOL        L?0061
  C:2211H         SYMBOL        L?0062
  C:2213H         SYMBOL        L?0063
  C:221AH         SYMBOL        L?0065
  C:221AH         SYMBOL        L?0066
  C:2228H         SYMBOL        L?0067
  C:2228H         SYMBOL        L?0068
  C:2231H         SYMBOL        L?0069
  C:2231H         SYMBOL        L?0070
  C:2237H         SYMBOL        L?0071
  C:2248H         SYMBOL        L?0072
  C:2258H         SYMBOL        L?0073
  C:2267H         SYMBOL        L?0077
  C:2267H         SYMBOL        L?0078
  -------         PROC          COM002C
  -------         ENDPROC       COM002C
  -------         PROC          _BCD2BIN
  D:0005H         SYMBOL        val
  C:38CBH         LINE#         35
  C:38CDH         LINE#         36
  C:38CDH         LINE#         37
  C:38E1H         LINE#         38
  -------         ENDPROC       _BCD2BIN
  -------         PROC          _BIN2BCD
  X:017EH         SYMBOL        val
  C:3370H         LINE#         40
  C:3378H         LINE#         41
  C:3378H         LINE#         42
  C:339BH         LINE#         43
  -------         ENDPROC       _BIN2BCD
  -------         PROC          DS1302_HW_INIT
  C:3BD4H         LINE#         45
  C:3BD4H         LINE#         46
  C:3BD4H         LINE#         47
  C:3BD7H         LINE#         48
  -------         ENDPROC       DS1302_HW_INIT
  -------         PROC          DS1302_RESET
  C:3BD8H         LINE#         50
  C:3BD8H         LINE#         51
  C:3BD8H         LINE#         52
  C:3BDBH         LINE#         53
  -------         ENDPROC       DS1302_RESET
  -------         PROC          DS1302_CLOCK
  C:3B95H         LINE#         55
  C:3B95H         LINE#         56
BL51 BANKED LINKER/LOCATER V6.22                                                      06/26/2021  00:39:09  PAGE 69


  C:3B95H         LINE#         57
  C:3B98H         LINE#         58
  C:3B9BH         LINE#         59
  -------         ENDPROC       DS1302_CLOCK
  -------         PROC          DS1302_START
  C:3BDCH         LINE#         61
  C:3BDCH         LINE#         62
  C:3BDCH         LINE#         63
  C:3BDFH         LINE#         64
  -------         ENDPROC       DS1302_START
  -------         PROC          DS1302_STOP
  C:3BE0H         LINE#         66
  C:3BE0H         LINE#         67
  C:3BE0H         LINE#         68
  C:3BE3H         LINE#         69
  -------         ENDPROC       DS1302_STOP
  -------         PROC          _DS1302_TXBIT
  D:0006H         SYMBOL        bitt
  C:3A1EH         LINE#         71
  C:3A1EH         LINE#         72
  C:3A1EH         LINE#         73
  C:3A2FH         LINE#         74
  -------         ENDPROC       _DS1302_TXBIT
  -------         PROC          DS1302_RXBIT
  C:3B2DH         LINE#         76
  C:3B2DH         LINE#         77
  C:3B2DH         LINE#         78
  C:3B3AH         LINE#         79
  -------         ENDPROC       DS1302_RXBIT
  -------         PROC          _DS1302_SENDBITS
  D:0004H         SYMBOL        val
  -------         DO            
  D:0002H         SYMBOL        i
  -------         ENDDO         
  C:3506H         LINE#         82
  C:350AH         LINE#         83
  C:350AH         LINE#         88
  C:3512H         LINE#         89
  C:351BH         LINE#         90
  C:351EH         LINE#         91
  C:352CH         LINE#         92
  -------         ENDPROC       _DS1302_SENDBITS
  -------         PROC          DS1302_RECVBITS
  -------         DO            
  X:0186H         SYMBOL        val
  X:0188H         SYMBOL        i
  -------         ENDDO         
  C:29C3H         LINE#         94
  C:29C3H         LINE#         95
  C:29C3H         LINE#         101
  C:29D0H         LINE#         102
  C:29F1H         LINE#         103
  C:29F4H         LINE#         104
  C:2A13H         LINE#         106
  C:2A1BH         LINE#         107
  -------         ENDPROC       DS1302_RECVBITS
  -------         PROC          _DS1302_READBYTE
BL51 BANKED LINKER/LOCATER V6.22                                                      06/26/2021  00:39:09  PAGE 70


  D:0006H         SYMBOL        addr
  -------         DO            
  D:0006H         SYMBOL        val
  -------         ENDDO         
  C:3AD4H         LINE#         109
  C:3AD4H         LINE#         110
  C:3AD4H         LINE#         113
  C:3AD4H         LINE#         115
  C:3AD4H         LINE#         116
  C:3ADDH         LINE#         117
  C:3AE0H         LINE#         118
  C:3AE3H         LINE#         120
  C:3AE3H         LINE#         121
  -------         ENDPROC       _DS1302_READBYTE
  -------         PROC          _DS1302_WRITEBYTE
  D:0006H         SYMBOL        addr
  D:0082H         SYMBOL        val
  C:38E2H         LINE#         123
  C:38E6H         LINE#         124
  C:38E6H         LINE#         125
  C:38E6H         LINE#         127
  C:38E6H         LINE#         128
  C:38EFH         LINE#         129
  C:38F6H         LINE#         130
  -------         ENDPROC       _DS1302_WRITEBYTE
  C:1904H         SYMBOL        L?0053
  C:1910H         SYMBOL        L?0064
  C:191CH         SYMBOL        L?0075
  -------         PROC          _DS1302_RTC_READ_TIME
  X:0183H         SYMBOL        tm
  C:185CH         LINE#         133
  C:1862H         LINE#         134
  C:1862H         LINE#         135
  C:1877H         LINE#         136
  C:1885H         LINE#         137
  C:1893H         LINE#         138
  C:18A1H         LINE#         139
  C:18AFH         LINE#         140
  C:18C8H         LINE#         141
  C:18D9H         LINE#         143
  C:18EAH         LINE#         144
  C:18FAH         LINE#         151
  C:1900H         LINE#         152
  C:1903H         LINE#         153
  -------         ENDPROC       _DS1302_RTC_READ_TIME
  C:1B49H         SYMBOL        L?0052
  C:1B57H         SYMBOL        L?0074
  C:1B62H         SYMBOL        L?0076
  -------         PROC          _DS1302_RTC_SET_TIME
  X:017BH         SYMBOL        tm
  C:1AAFH         LINE#         155
  C:1AB5H         LINE#         156
  C:1AB5H         LINE#         158
  C:1AC4H         LINE#         160
  C:1AD6H         LINE#         161
  C:1AE4H         LINE#         162
  C:1AF2H         LINE#         163
BL51 BANKED LINKER/LOCATER V6.22                                                      06/26/2021  00:39:09  PAGE 71


  C:1B00H         LINE#         164
  C:1B0EH         LINE#         165
  C:1B1CH         LINE#         166
  C:1B3FH         LINE#         169
  C:1B45H         LINE#         171
  C:1B48H         LINE#         172
  -------         ENDPROC       _DS1302_RTC_SET_TIME
  -------         PROC          _TIME_2_ASCII
  X:0183H         SYMBOL        tm
  X:0186H         SYMBOL        asc
  C:12C4H         LINE#         187
  C:12CAH         LINE#         188
  C:12D9H         LINE#         189
  C:12F0H         LINE#         191
  C:12F5H         LINE#         193
  C:1308H         LINE#         194
  C:131FH         LINE#         196
  C:1324H         LINE#         198
  C:1337H         LINE#         199
  C:134AH         LINE#         201
  C:1359H         LINE#         202
  C:1370H         LINE#         204
  C:1375H         LINE#         206
  C:1384H         LINE#         207
  C:139FH         LINE#         209
  C:13A4H         LINE#         211
  C:13B3H         LINE#         212
  C:13D8H         LINE#         213
  C:13DBH         LINE#         214
  -------         ENDPROC       _TIME_2_ASCII
  -------         PROC          _PROCESS_THREAD_DS1302
  X:017BH         SYMBOL        process_pt
  X:017EH         SYMBOL        ev
  X:017FH         SYMBOL        dataa
  -------         DO            
  X:0137H         SYMBOL        et
  X:0145H         SYMBOL        ptt
  -------         DO            
  X:0182H         SYMBOL        PT_YIELD_FLAG
  -------         ENDDO         
  -------         ENDDO         
  C:1F7DH         LINE#         216
  C:1F86H         LINE#         217
  C:1F86H         LINE#         218
  C:1F86H         LINE#         220
  C:1FA5H         LINE#         222
  C:1FB3H         LINE#         223
  C:1FB3H         LINE#         224
  C:1FB3H         LINE#         226
  C:1FD8H         LINE#         227
  C:1FE1H         LINE#         228
  C:1FF8H         LINE#         229
  C:2001H         LINE#         232
  C:2007H         LINE#         233
  C:2009H         LINE#         234
  C:201CH         LINE#         235
  -------         ENDPROC       _PROCESS_THREAD_DS1302
BL51 BANKED LINKER/LOCATER V6.22                                                      06/26/2021  00:39:09  PAGE 72


  -------         ENDMOD        SPIN_DS1302

  -------         MODULE        ?C?FPADD
  C:0045H         PUBLIC        ?C?FPADD
  C:0041H         PUBLIC        ?C?FPSUB
  -------         ENDMOD        ?C?FPADD

  -------         MODULE        ?C?FPMUL
  C:0136H         PUBLIC        ?C?FPMUL
  -------         ENDMOD        ?C?FPMUL

  -------         MODULE        ?C?FPCMP
  C:023EH         PUBLIC        ?C?FPCMP
  C:023CH         PUBLIC        ?C?FPCMP3
  -------         ENDMOD        ?C?FPCMP

  -------         MODULE        ?C?FPNEG
  C:02A9H         PUBLIC        ?C?FPNEG
  -------         ENDMOD        ?C?FPNEG

  -------         MODULE        ?C?FCAST
  C:02C4H         PUBLIC        ?C?FCASTC
  C:02BFH         PUBLIC        ?C?FCASTI
  C:02BAH         PUBLIC        ?C?FCASTL
  -------         ENDMOD        ?C?FCAST

  -------         MODULE        ?C?CASTF
  C:02F8H         PUBLIC        ?C?CASTF
  -------         ENDMOD        ?C?CASTF

  -------         MODULE        ?C?SCDIV
  C:0379H         PUBLIC        ?C?SCDIV
  -------         ENDMOD        ?C?SCDIV

  -------         MODULE        ?C?CLDPTR
  C:039BH         PUBLIC        ?C?CLDPTR
  -------         ENDMOD        ?C?CLDPTR

  -------         MODULE        ?C?CLDOPTR
  C:03B4H         PUBLIC        ?C?CLDOPTR
  -------         ENDMOD        ?C?CLDOPTR

  -------         MODULE        ?C?CSTPTR
  C:03E1H         PUBLIC        ?C?CSTPTR
  -------         ENDMOD        ?C?CSTPTR

  -------         MODULE        ?C?CSTOPTR
  C:03F3H         PUBLIC        ?C?CSTOPTR
  -------         ENDMOD        ?C?CSTOPTR

  -------         MODULE        ?C?IMUL
  C:0415H         PUBLIC        ?C?IMUL
  -------         ENDMOD        ?C?IMUL

  -------         MODULE        ?C?UIDIV
  C:0427H         PUBLIC        ?C?UIDIV
  -------         ENDMOD        ?C?UIDIV
BL51 BANKED LINKER/LOCATER V6.22                                                      06/26/2021  00:39:09  PAGE 73



  -------         MODULE        ?C?SIDIV
  C:047CH         PUBLIC        ?C?SIDIV
  -------         ENDMOD        ?C?SIDIV

  -------         MODULE        ?C?IILDX
  C:04B2H         PUBLIC        ?C?IILDX
  -------         ENDMOD        ?C?IILDX

  -------         MODULE        ?C?ILDIX
  C:04C8H         PUBLIC        ?C?ILDIX
  -------         ENDMOD        ?C?ILDIX

  -------         MODULE        ?C?ILDPTR
  C:04DEH         PUBLIC        ?C?ILDPTR
  -------         ENDMOD        ?C?ILDPTR

  -------         MODULE        ?C?ILDOPTR
  C:0509H         PUBLIC        ?C?ILDOPTR
  -------         ENDMOD        ?C?ILDOPTR

  -------         MODULE        ?C?IILDOPTR
  C:0541H         PUBLIC        ?C?IILDOPTR
  -------         ENDMOD        ?C?IILDOPTR

  -------         MODULE        ?C?ISTPTR
  C:058EH         PUBLIC        ?C?ISTPTR
  -------         ENDMOD        ?C?ISTPTR

  -------         MODULE        ?C?ISTOPTR
  C:05ADH         PUBLIC        ?C?ISTOPTR
  -------         ENDMOD        ?C?ISTOPTR

  -------         MODULE        ?C?LMUL
  C:05DAH         PUBLIC        ?C?LMUL
  -------         ENDMOD        ?C?LMUL

  -------         MODULE        ?C?LNEG
  C:0629H         PUBLIC        ?C?LNEG
  -------         ENDMOD        ?C?LNEG

  -------         MODULE        ?C?ULCMP
  C:0637H         PUBLIC        ?C?ULCMP
  -------         ENDMOD        ?C?ULCMP

  -------         MODULE        ?C?LLDPTR
  C:0648H         PUBLIC        ?C?LLDPTR
  -------         ENDMOD        ?C?LLDPTR

  -------         MODULE        ?C?LLDOPTR
  C:0668H         PUBLIC        ?C?LLDOPTR
  -------         ENDMOD        ?C?LLDOPTR

  -------         MODULE        ?C?LSTPTR
  C:0698H         PUBLIC        ?C?LSTPTR
  -------         ENDMOD        ?C?LSTPTR

BL51 BANKED LINKER/LOCATER V6.22                                                      06/26/2021  00:39:09  PAGE 74


  -------         MODULE        ?C?LSTOPTR
  C:06B2H         PUBLIC        ?C?LSTOPTR
  -------         ENDMOD        ?C?LSTOPTR

  -------         MODULE        ?C?LLDPTR0
  C:06D6H         PUBLIC        ?C?LLDPTR0
  -------         ENDMOD        ?C?LLDPTR0

  -------         MODULE        ?C?LLDOPTR0
  C:06F6H         PUBLIC        ?C?LLDOPTR0
  -------         ENDMOD        ?C?LLDOPTR0

  -------         MODULE        ?C?LSTXDATA
  C:0726H         PUBLIC        ?C?LSTXDATA
  -------         ENDMOD        ?C?LSTXDATA

  -------         MODULE        ?C?LSTKXDATA
  C:0732H         PUBLIC        ?C?LSTKXDATA
  -------         ENDMOD        ?C?LSTKXDATA

  -------         MODULE        ?C?LSTKPTR
  C:0763H         PUBLIC        ?C?LSTKPTR
  -------         ENDMOD        ?C?LSTKPTR

  -------         MODULE        ?C?PLDPTR
  C:077DH         PUBLIC        ?C?PLDPTR
  -------         ENDMOD        ?C?PLDPTR

  -------         MODULE        ?C?PILDPTR
  C:079DH         PUBLIC        ?C?PILDPTR
  -------         ENDMOD        ?C?PILDPTR

  -------         MODULE        ?C?PSTPTR
  C:07BFH         PUBLIC        ?C?PSTPTR
  -------         ENDMOD        ?C?PSTPTR

  -------         MODULE        ?C?PLDOPTR
  C:080EH         PUBLIC        ?C?PLDOPTR
  -------         ENDMOD        ?C?PLDOPTR

  -------         MODULE        ?C?PSTOPTR
  C:083EH         PUBLIC        ?C?PSTOPTR
  -------         ENDMOD        ?C?PSTOPTR

  -------         MODULE        ?C?ICALL
  C:0897H         PUBLIC        ?C?ICALL
  C:089BH         PUBLIC        ?C?ICALL2
  -------         ENDMOD        ?C?ICALL

  -------         MODULE        ?C?ADDXBP
  C:089DH         PUBLIC        ?C?ADDXBP
  -------         ENDMOD        ?C?ADDXBP

  -------         MODULE        ?C?COPYP2
  C:098DH         PUBLIC        ?C?COPYP2
  -------         ENDMOD        ?C?COPYP2

BL51 BANKED LINKER/LOCATER V6.22                                                      06/26/2021  00:39:09  PAGE 75


  -------         MODULE        ?C?LLDIDATA
  C:09B3H         PUBLIC        ?C?LLDIDATA
  -------         ENDMOD        ?C?LLDIDATA

  -------         MODULE        ?C?LLDXDATA
  C:09BFH         PUBLIC        ?C?LLDXDATA
  -------         ENDMOD        ?C?LLDXDATA

  -------         MODULE        ?C?LLDPDATA
  C:09CBH         PUBLIC        ?C?LLDPDATA
  -------         ENDMOD        ?C?LLDPDATA

  -------         MODULE        ?C?LLDCODE
  C:09D7H         PUBLIC        ?C?LLDCODE
  -------         ENDMOD        ?C?LLDCODE

  -------         MODULE        ?C?LLDIDATA0
  C:09E7H         PUBLIC        ?C?LLDIDATA0
  -------         ENDMOD        ?C?LLDIDATA0

  -------         MODULE        ?C?LLDXDATA0
  C:09F4H         PUBLIC        ?C?LLDXDATA0
  -------         ENDMOD        ?C?LLDXDATA0

  -------         MODULE        ?C?LLDPDATA0
  C:0A00H         PUBLIC        ?C?LLDPDATA0
  -------         ENDMOD        ?C?LLDPDATA0

  -------         MODULE        ?C?LLDCODE0
  C:0A0DH         PUBLIC        ?C?LLDCODE0
  -------         ENDMOD        ?C?LLDCODE0

  -------         MODULE        ?C?LSTIDATA
  C:0A1DH         PUBLIC        ?C?LSTIDATA
  -------         ENDMOD        ?C?LSTIDATA

  -------         MODULE        ?C?LSTPDATA
  C:0A29H         PUBLIC        ?C?LSTPDATA
  -------         ENDMOD        ?C?LSTPDATA

  -------         MODULE        ?C?LSTKIDATA
  C:0A35H         PUBLIC        ?C?LSTKIDATA
  -------         ENDMOD        ?C?LSTKIDATA

  -------         MODULE        ?C?LSTKPDATA
  C:0A4EH         PUBLIC        ?C?LSTKPDATA
  -------         ENDMOD        ?C?LSTKPDATA

  -------         MODULE        ?C?PLDIDATA
  C:0A67H         PUBLIC        ?C?PLDIDATA
  -------         ENDMOD        ?C?PLDIDATA

  -------         MODULE        ?C?PILDIDATA
  C:0A70H         PUBLIC        ?C?PILDIDATA
  -------         ENDMOD        ?C?PILDIDATA

  -------         MODULE        ?C?PSTIDATA
BL51 BANKED LINKER/LOCATER V6.22                                                      06/26/2021  00:39:09  PAGE 76


  C:0A80H         PUBLIC        ?C?PSTIDATA
  -------         ENDMOD        ?C?PSTIDATA

  -------         MODULE        ?C?PLDXDATA
  C:0A89H         PUBLIC        ?C?PLDXDATA
  -------         ENDMOD        ?C?PLDXDATA

  -------         MODULE        ?C?PILDXDATA
  C:0A92H         PUBLIC        ?C?PILDXDATA
  -------         ENDMOD        ?C?PILDXDATA

  -------         MODULE        ?C?PSTXDATA
  C:0AA9H         PUBLIC        ?C?PSTXDATA
  -------         ENDMOD        ?C?PSTXDATA

  -------         MODULE        ?C?PLDPDATA
  C:0AB2H         PUBLIC        ?C?PLDPDATA
  -------         ENDMOD        ?C?PLDPDATA

  -------         MODULE        ?C?PILDPDATA
  C:0ABBH         PUBLIC        ?C?PILDPDATA
  -------         ENDMOD        ?C?PILDPDATA

  -------         MODULE        ?C?PSTPDATA
  C:0ACBH         PUBLIC        ?C?PSTPDATA
  -------         ENDMOD        ?C?PSTPDATA

  -------         MODULE        ?C?PLDCODE
  C:0AD4H         PUBLIC        ?C?PLDCODE
  -------         ENDMOD        ?C?PLDCODE

  -------         MODULE        ?C_XBP
  D:0008H         PUBLIC        ?C_XBP
  -------         ENDMOD        ?C_XBP

*** WARNING L13: RECURSIVE CALL TO SEGMENT
    SEGMENT: ?PR?_EXIT_PROCESS?PROCESS
    CALLER:  ?PR?_CALL_PROCESS?PROCESS

*** WARNING L16: UNCALLED SEGMENT, IGNORED FOR OVERLAY PROCESS
    SEGMENT: ?PR?_SPIN_SET_F0?SPIN_USERSTART

*** WARNING L16: UNCALLED SEGMENT, IGNORED FOR OVERLAY PROCESS
    SEGMENT: ?PR?SPIN_GET_CY?SPIN_USERSTART

*** WARNING L16: UNCALLED SEGMENT, IGNORED FOR OVERLAY PROCESS
    SEGMENT: ?PR?SPIN_GET_F0?SPIN_USERSTART

*** WARNING L16: UNCALLED SEGMENT, IGNORED FOR OVERLAY PROCESS
    SEGMENT: ?PR?SPIN_GET_RS1?SPIN_USERSTART

*** WARNING L16: UNCALLED SEGMENT, IGNORED FOR OVERLAY PROCESS
    SEGMENT: ?PR?SPIN_GET_RS0?SPIN_USERSTART

*** WARNING L16: UNCALLED SEGMENT, IGNORED FOR OVERLAY PROCESS
    SEGMENT: ?PR?SPIN_GET_OV?SPIN_USERSTART

BL51 BANKED LINKER/LOCATER V6.22                                                      06/26/2021  00:39:09  PAGE 77


*** WARNING L16: UNCALLED SEGMENT, IGNORED FOR OVERLAY PROCESS
    SEGMENT: ?PR?_SPIN_SET_SP?SPIN_USERSTART

*** WARNING L16: UNCALLED SEGMENT, IGNORED FOR OVERLAY PROCESS
    SEGMENT: ?PR?SPIN_GET_SP?SPIN_USERSTART

*** WARNING L16: UNCALLED SEGMENT, IGNORED FOR OVERLAY PROCESS
    SEGMENT: ?PR?SPIN_EXINT0_STOP?SPIN_EXINTERUPT

*** WARNING L16: UNCALLED SEGMENT, IGNORED FOR OVERLAY PROCESS
    SEGMENT: ?PR?SPIN_EXINT1_STOP?SPIN_EXINTERUPT

*** WARNING L16: UNCALLED SEGMENT, IGNORED FOR OVERLAY PROCESS
    SEGMENT: ?PR?_SPIN_SET_GPIO_VALUE?SPIN_GPIO

*** WARNING L16: UNCALLED SEGMENT, IGNORED FOR OVERLAY PROCESS
    SEGMENT: ?PR?_SPIN_GET_GPIO_BIT_VALUE?SPIN_GPIO

*** WARNING L16: UNCALLED SEGMENT, IGNORED FOR OVERLAY PROCESS
    SEGMENT: ?PR?SPIN_INTERUPT_DISABLE?SPIN_INTERUPT

*** WARNING L16: UNCALLED SEGMENT, IGNORED FOR OVERLAY PROCESS
    SEGMENT: ?PR?POWER_DOWN?SPIN_PWRMGR

*** WARNING L16: UNCALLED SEGMENT, IGNORED FOR OVERLAY PROCESS
    SEGMENT: ?PR?_SPIN_COUNTER_TIME?SPIN_TIMER

*** WARNING L16: UNCALLED SEGMENT, IGNORED FOR OVERLAY PROCESS
    SEGMENT: ?PR?DELAY2US?SPIN_TIMER

*** WARNING L16: UNCALLED SEGMENT, IGNORED FOR OVERLAY PROCESS
    SEGMENT: ?PR?DELAY3US?SPIN_TIMER

*** WARNING L16: UNCALLED SEGMENT, IGNORED FOR OVERLAY PROCESS
    SEGMENT: ?PR?DELAY1S?SPIN_TIMER

*** WARNING L16: UNCALLED SEGMENT, IGNORED FOR OVERLAY PROCESS
    SEGMENT: ?PR?SPIN_WATCHDOG_DISABLE?SPIN_WATCHDOG

*** WARNING L16: UNCALLED SEGMENT, IGNORED FOR OVERLAY PROCESS
    SEGMENT: ?PR?SPIN_WATCHDOG_IDLEWORK?SPIN_WATCHDOG

*** WARNING L16: UNCALLED SEGMENT, IGNORED FOR OVERLAY PROCESS
    SEGMENT: ?PR?_XPUTS?XPRINTF

*** WARNING L16: UNCALLED SEGMENT, IGNORED FOR OVERLAY PROCESS
    SEGMENT: ?PR?XGETC?XPRINTF

*** WARNING L16: UNCALLED SEGMENT, IGNORED FOR OVERLAY PROCESS
    SEGMENT: ?PR?_XGETS?XPRINTF

*** WARNING L16: UNCALLED SEGMENT, IGNORED FOR OVERLAY PROCESS
    SEGMENT: ?PR?_XATOI?XPRINTF

*** WARNING L16: UNCALLED SEGMENT, IGNORED FOR OVERLAY PROCESS
    SEGMENT: ?PR?_CLOCK_DELAY_USEC?CLOCK

BL51 BANKED LINKER/LOCATER V6.22                                                      06/26/2021  00:39:09  PAGE 78


*** WARNING L16: UNCALLED SEGMENT, IGNORED FOR OVERLAY PROCESS
    SEGMENT: ?PR?_CLOCK_WAIT?CLOCK

*** WARNING L16: UNCALLED SEGMENT, IGNORED FOR OVERLAY PROCESS
    SEGMENT: ?PR?_ETIMER_RESET_WITH_NEW_INTERVAL?ETIMER

*** WARNING L16: UNCALLED SEGMENT, IGNORED FOR OVERLAY PROCESS
    SEGMENT: ?PR?_ETIMER_ADJUST?ETIMER

*** WARNING L16: UNCALLED SEGMENT, IGNORED FOR OVERLAY PROCESS
    SEGMENT: ?PR?_ETIMER_EXPIRATION_TIME?ETIMER

*** WARNING L16: UNCALLED SEGMENT, IGNORED FOR OVERLAY PROCESS
    SEGMENT: ?PR?_ETIMER_START_TIME?ETIMER

*** WARNING L16: UNCALLED SEGMENT, IGNORED FOR OVERLAY PROCESS
    SEGMENT: ?PR?_PROCESS_EXIT?PROCESS

*** WARNING L16: UNCALLED SEGMENT, IGNORED FOR OVERLAY PROCESS
    SEGMENT: ?PR?PROCESS_NEVENTS?PROCESS

*** WARNING L16: UNCALLED SEGMENT, IGNORED FOR OVERLAY PROCESS
    SEGMENT: ?PR?_TIMER_REMAINING?TIMER

*** WARNING L16: UNCALLED SEGMENT, IGNORED FOR OVERLAY PROCESS
    SEGMENT: ?PR?_STIMER_SET?STIMER

*** WARNING L16: UNCALLED SEGMENT, IGNORED FOR OVERLAY PROCESS
    SEGMENT: ?PR?_STIMER_RESET?STIMER

*** WARNING L16: UNCALLED SEGMENT, IGNORED FOR OVERLAY PROCESS
    SEGMENT: ?PR?_STIMER_RESTART?STIMER

*** WARNING L16: UNCALLED SEGMENT, IGNORED FOR OVERLAY PROCESS
    SEGMENT: ?PR?_STIMER_EXPIRED?STIMER

*** WARNING L16: UNCALLED SEGMENT, IGNORED FOR OVERLAY PROCESS
    SEGMENT: ?PR?_STIMER_REMAINING?STIMER

*** WARNING L16: UNCALLED SEGMENT, IGNORED FOR OVERLAY PROCESS
    SEGMENT: ?PR?_STIMER_ELAPSED?STIMER

*** WARNING L16: UNCALLED SEGMENT, IGNORED FOR OVERLAY PROCESS
    SEGMENT: ?PR?_CTIMER_SET?CTIMER

*** WARNING L16: UNCALLED SEGMENT, IGNORED FOR OVERLAY PROCESS
    SEGMENT: ?PR?_CTIMER_RESET?CTIMER

*** WARNING L16: UNCALLED SEGMENT, IGNORED FOR OVERLAY PROCESS
    SEGMENT: ?PR?_CTIMER_RESTART?CTIMER

*** WARNING L16: UNCALLED SEGMENT, IGNORED FOR OVERLAY PROCESS
    SEGMENT: ?PR?_CTIMER_STOP?CTIMER

*** WARNING L16: UNCALLED SEGMENT, IGNORED FOR OVERLAY PROCESS
    SEGMENT: ?PR?_CTIMER_EXPIRED?CTIMER

BL51 BANKED LINKER/LOCATER V6.22                                                      06/26/2021  00:39:09  PAGE 79


*** WARNING L16: UNCALLED SEGMENT, IGNORED FOR OVERLAY PROCESS
    SEGMENT: ?PR?_RTIMER_SET?RTIMER

*** WARNING L16: UNCALLED SEGMENT, IGNORED FOR OVERLAY PROCESS
    SEGMENT: ?PR?_LIST_COPY?LIST

*** WARNING L16: UNCALLED SEGMENT, IGNORED FOR OVERLAY PROCESS
    SEGMENT: ?PR?_LIST_CHOP?LIST

*** WARNING L16: UNCALLED SEGMENT, IGNORED FOR OVERLAY PROCESS
    SEGMENT: ?PR?_LIST_POP?LIST

*** WARNING L16: UNCALLED SEGMENT, IGNORED FOR OVERLAY PROCESS
    SEGMENT: ?PR?_LIST_LENGTH?LIST

*** WARNING L16: UNCALLED SEGMENT, IGNORED FOR OVERLAY PROCESS
    SEGMENT: ?PR?_LIST_INSERT?LIST

*** WARNING L16: UNCALLED SEGMENT, IGNORED FOR OVERLAY PROCESS
    SEGMENT: ?PR?_LIST_ITEM_NEXT?LIST

*** WARNING L16: UNCALLED SEGMENT, IGNORED FOR OVERLAY PROCESS
    SEGMENT: ?PR?DS1302_HW_INIT?SPIN_DS1302

*** WARNING L15: MULTIPLE CALL TO SEGMENT
    SEGMENT: ?PR?_SPIN_TIMER_START?SPIN_TIMER
    CALLER1: ?PR?RTIMER_ISR?RTIMER_ARCH
    CALLER2: ?C_C51STARTUP

*** WARNING L15: MULTIPLE CALL TO SEGMENT
    SEGMENT: ?PR?_PROCESS_POLL?PROCESS
    CALLER1: ?PR?INTERSVR1?CLOCK
    CALLER2: ?C_C51STARTUP

Program Size: data=31.0 xdata=798 code=15351
LINK/LOCATE RUN COMPLETE.  55 WARNING(S),  0 ERROR(S)
